

Microchip MPLAB XC8 Assembler V2.32 build 20210201212658 
                                                                                               Mon Mar 01 20:52:24 2021

Microchip MPLAB XC8 C Compiler v2.32 (Free license) build 20210201212658 Og1 
     1                           	processor	16F1827
     2                           	pagewidth 120
     3                           	opt	flic
     4                           	psect	idataBANK0,global,class=CODE,delta=2,noexec
     5                           	psect	stringtext1,global,class=STRCODE,delta=2,noexec
     6                           	psect	stringtext2,global,class=STRCODE,delta=2,noexec
     7                           	psect	stringtext3,global,class=STRCODE,delta=2,noexec
     8                           	psect	stringtext4,global,class=STRCODE,delta=2,noexec
     9                           	psect	cinit,global,class=CODE,merge=1,delta=2
    10                           	psect	bssBANK0,global,class=BANK0,space=1,delta=1,noexec
    11                           	psect	dataBANK0,global,class=BANK0,space=1,delta=1,noexec
    12                           	psect	cstackCOMMON,global,class=COMMON,space=1,delta=1,noexec
    13                           	psect	cstackBANK0,global,class=BANK0,space=1,delta=1,noexec
    14                           	psect	maintext,global,class=CODE,merge=1,split=1,delta=2
    15                           	psect	text1,local,class=CODE,merge=1,delta=2
    16                           	psect	text2,local,class=CODE,merge=1,delta=2
    17                           	psect	text3,local,class=CODE,merge=1,delta=2
    18                           	psect	text4,local,class=CODE,merge=1,delta=2
    19                           	psect	text5,local,class=CODE,merge=1,delta=2
    20                           	psect	text6,local,class=CODE,merge=1,delta=2
    21                           	psect	text7,local,class=CODE,merge=1,delta=2
    22                           	psect	text8,local,class=CODE,merge=1,delta=2
    23                           	psect	text9,local,class=CODE,merge=1,delta=2
    24                           	psect	text10,local,class=CODE,merge=1,delta=2
    25                           	psect	text11,local,class=CODE,merge=1,delta=2
    26                           	psect	text12,local,class=CODE,merge=1,delta=2
    27                           	psect	text13,local,class=CODE,merge=1,delta=2
    28                           	psect	text14,local,class=CODE,merge=1,delta=2
    29                           	psect	config,global,abs,ovrld,class=CONFIG,space=4,delta=2,noexec
    30                           	dabs	1,0x7E,2
    31  0000                     
    32                           ; Version 2.32
    33                           ; Generated 02/02/2021 GMT
    34                           ; 
    35                           ; Copyright © 2021, Microchip Technology Inc. and its subsidiaries ("Microchip")
    36                           ; All rights reserved.
    37                           ; 
    38                           ; This software is developed by Microchip Technology Inc. and its subsidiaries ("Microch
      +                          ip").
    39                           ; 
    40                           ; Redistribution and use in source and binary forms, with or without modification, are
    41                           ; permitted provided that the following conditions are met:
    42                           ; 
    43                           ;     1. Redistributions of source code must retain the above copyright notice, this lis
      +                          t of
    44                           ;        conditions and the following disclaimer.
    45                           ; 
    46                           ;     2. Redistributions in binary form must reproduce the above copyright notice, this 
      +                          list
    47                           ;        of conditions and the following disclaimer in the documentation and/or other
    48                           ;        materials provided with the distribution. Publication is not required when
    49                           ;        this file is used in an embedded application.
    50                           ; 
    51                           ;     3. Microchip's name may not be used to endorse or promote products derived from th
      +                          is
    52                           ;        software without specific prior written permission.
    53                           ; 
    54                           ; THIS SOFTWARE IS PROVIDED BY MICROCHIP "AS IS" AND ANY EXPRESS OR IMPLIED WARRANTIES,
    55                           ; INCLUDING, BUT NOT LIMITED TO, THE IMPLIED WARRANTIES OF MERCHANTABILITY AND FITNESS F
      +                          OR
    56                           ; PURPOSE ARE DISCLAIMED.  IN NO EVENT SHALL MICROCHIP BE LIABLE FOR ANY DIRECT, INDIREC
      +                          T,
    57                           ; INCIDENTAL, SPECIAL, EXEMPLARY, OR CONSEQUENTIAL DAMAGES (INCLUDING BUT NOT LIMITED TO
    58                           ; PROCUREMENT OF SUBSTITUTE GOODS OR SERVICES; LOSS OF USE, DATA OR PROFITS; OR BUSINESS
    59                           ; INTERRUPTION) HOWSOEVER CAUSED AND ON ANY THEORY OF LIABILITY, WHETHER IN CONTRACT, ST
      +                          RICT
    60                           ; LIABILITY, OR TORT (INCLUDING NEGLIGENCE OR OTHERWISE) ARISING IN ANY WAY OUT OF THE U
      +                          SE OF
    61                           ; THIS SOFTWARE, EVEN IF ADVISED OF THE POSSIBILITY OF SUCH DAMAGE.
    62                           ; 
    63                           ; 
    64                           ; Code-generator required, PIC16F1827 Definitions
    65                           ; 
    66                           ; SFR Addresses
    67  0000                     	;# 
    68  0001                     	;# 
    69  0002                     	;# 
    70  0003                     	;# 
    71  0004                     	;# 
    72  0005                     	;# 
    73  0006                     	;# 
    74  0007                     	;# 
    75  0008                     	;# 
    76  0009                     	;# 
    77  000A                     	;# 
    78  000B                     	;# 
    79  000C                     	;# 
    80  000D                     	;# 
    81  0011                     	;# 
    82  0012                     	;# 
    83  0013                     	;# 
    84  0014                     	;# 
    85  0015                     	;# 
    86  0016                     	;# 
    87  0016                     	;# 
    88  0017                     	;# 
    89  0018                     	;# 
    90  0019                     	;# 
    91  001A                     	;# 
    92  001B                     	;# 
    93  001C                     	;# 
    94  001E                     	;# 
    95  001F                     	;# 
    96  008C                     	;# 
    97  008D                     	;# 
    98  0091                     	;# 
    99  0092                     	;# 
   100  0093                     	;# 
   101  0094                     	;# 
   102  0095                     	;# 
   103  0096                     	;# 
   104  0097                     	;# 
   105  0098                     	;# 
   106  0099                     	;# 
   107  009A                     	;# 
   108  009B                     	;# 
   109  009B                     	;# 
   110  009C                     	;# 
   111  009D                     	;# 
   112  009E                     	;# 
   113  010C                     	;# 
   114  010D                     	;# 
   115  0111                     	;# 
   116  0112                     	;# 
   117  0113                     	;# 
   118  0114                     	;# 
   119  0115                     	;# 
   120  0116                     	;# 
   121  0117                     	;# 
   122  0118                     	;# 
   123  0119                     	;# 
   124  011A                     	;# 
   125  011B                     	;# 
   126  011D                     	;# 
   127  011E                     	;# 
   128  018C                     	;# 
   129  018D                     	;# 
   130  0191                     	;# 
   131  0191                     	;# 
   132  0192                     	;# 
   133  0193                     	;# 
   134  0193                     	;# 
   135  0193                     	;# 
   136  0194                     	;# 
   137  0195                     	;# 
   138  0196                     	;# 
   139  0199                     	;# 
   140  019A                     	;# 
   141  019B                     	;# 
   142  019B                     	;# 
   143  019B                     	;# 
   144  019B                     	;# 
   145  019C                     	;# 
   146  019C                     	;# 
   147  019D                     	;# 
   148  019E                     	;# 
   149  019F                     	;# 
   150  020C                     	;# 
   151  020D                     	;# 
   152  0211                     	;# 
   153  0211                     	;# 
   154  0212                     	;# 
   155  0212                     	;# 
   156  0213                     	;# 
   157  0213                     	;# 
   158  0214                     	;# 
   159  0214                     	;# 
   160  0215                     	;# 
   161  0215                     	;# 
   162  0215                     	;# 
   163  0216                     	;# 
   164  0216                     	;# 
   165  0217                     	;# 
   166  0217                     	;# 
   167  0219                     	;# 
   168  021A                     	;# 
   169  021B                     	;# 
   170  021C                     	;# 
   171  021D                     	;# 
   172  021E                     	;# 
   173  021F                     	;# 
   174  0291                     	;# 
   175  0291                     	;# 
   176  0292                     	;# 
   177  0293                     	;# 
   178  0294                     	;# 
   179  0295                     	;# 
   180  0295                     	;# 
   181  0296                     	;# 
   182  0298                     	;# 
   183  0298                     	;# 
   184  0299                     	;# 
   185  029A                     	;# 
   186  029B                     	;# 
   187  029C                     	;# 
   188  029C                     	;# 
   189  029D                     	;# 
   190  029E                     	;# 
   191  029E                     	;# 
   192  0311                     	;# 
   193  0311                     	;# 
   194  0312                     	;# 
   195  0313                     	;# 
   196  0318                     	;# 
   197  0318                     	;# 
   198  0319                     	;# 
   199  031A                     	;# 
   200  0394                     	;# 
   201  0395                     	;# 
   202  0396                     	;# 
   203  039A                     	;# 
   204  039C                     	;# 
   205  039D                     	;# 
   206  039E                     	;# 
   207  039F                     	;# 
   208  0415                     	;# 
   209  0416                     	;# 
   210  0417                     	;# 
   211  041C                     	;# 
   212  041D                     	;# 
   213  041E                     	;# 
   214  0FE4                     	;# 
   215  0FE5                     	;# 
   216  0FE6                     	;# 
   217  0FE7                     	;# 
   218  0FE8                     	;# 
   219  0FE9                     	;# 
   220  0FEA                     	;# 
   221  0FEB                     	;# 
   222  0FED                     	;# 
   223  0FEE                     	;# 
   224  0FEF                     	;# 
   225  0000                     	;# 
   226  0001                     	;# 
   227  0002                     	;# 
   228  0003                     	;# 
   229  0004                     	;# 
   230  0005                     	;# 
   231  0006                     	;# 
   232  0007                     	;# 
   233  0008                     	;# 
   234  0009                     	;# 
   235  000A                     	;# 
   236  000B                     	;# 
   237  000C                     	;# 
   238  000D                     	;# 
   239  0011                     	;# 
   240  0012                     	;# 
   241  0013                     	;# 
   242  0014                     	;# 
   243  0015                     	;# 
   244  0016                     	;# 
   245  0016                     	;# 
   246  0017                     	;# 
   247  0018                     	;# 
   248  0019                     	;# 
   249  001A                     	;# 
   250  001B                     	;# 
   251  001C                     	;# 
   252  001E                     	;# 
   253  001F                     	;# 
   254  008C                     	;# 
   255  008D                     	;# 
   256  0091                     	;# 
   257  0092                     	;# 
   258  0093                     	;# 
   259  0094                     	;# 
   260  0095                     	;# 
   261  0096                     	;# 
   262  0097                     	;# 
   263  0098                     	;# 
   264  0099                     	;# 
   265  009A                     	;# 
   266  009B                     	;# 
   267  009B                     	;# 
   268  009C                     	;# 
   269  009D                     	;# 
   270  009E                     	;# 
   271  010C                     	;# 
   272  010D                     	;# 
   273  0111                     	;# 
   274  0112                     	;# 
   275  0113                     	;# 
   276  0114                     	;# 
   277  0115                     	;# 
   278  0116                     	;# 
   279  0117                     	;# 
   280  0118                     	;# 
   281  0119                     	;# 
   282  011A                     	;# 
   283  011B                     	;# 
   284  011D                     	;# 
   285  011E                     	;# 
   286  018C                     	;# 
   287  018D                     	;# 
   288  0191                     	;# 
   289  0191                     	;# 
   290  0192                     	;# 
   291  0193                     	;# 
   292  0193                     	;# 
   293  0193                     	;# 
   294  0194                     	;# 
   295  0195                     	;# 
   296  0196                     	;# 
   297  0199                     	;# 
   298  019A                     	;# 
   299  019B                     	;# 
   300  019B                     	;# 
   301  019B                     	;# 
   302  019B                     	;# 
   303  019C                     	;# 
   304  019C                     	;# 
   305  019D                     	;# 
   306  019E                     	;# 
   307  019F                     	;# 
   308  020C                     	;# 
   309  020D                     	;# 
   310  0211                     	;# 
   311  0211                     	;# 
   312  0212                     	;# 
   313  0212                     	;# 
   314  0213                     	;# 
   315  0213                     	;# 
   316  0214                     	;# 
   317  0214                     	;# 
   318  0215                     	;# 
   319  0215                     	;# 
   320  0215                     	;# 
   321  0216                     	;# 
   322  0216                     	;# 
   323  0217                     	;# 
   324  0217                     	;# 
   325  0219                     	;# 
   326  021A                     	;# 
   327  021B                     	;# 
   328  021C                     	;# 
   329  021D                     	;# 
   330  021E                     	;# 
   331  021F                     	;# 
   332  0291                     	;# 
   333  0291                     	;# 
   334  0292                     	;# 
   335  0293                     	;# 
   336  0294                     	;# 
   337  0295                     	;# 
   338  0295                     	;# 
   339  0296                     	;# 
   340  0298                     	;# 
   341  0298                     	;# 
   342  0299                     	;# 
   343  029A                     	;# 
   344  029B                     	;# 
   345  029C                     	;# 
   346  029C                     	;# 
   347  029D                     	;# 
   348  029E                     	;# 
   349  029E                     	;# 
   350  0311                     	;# 
   351  0311                     	;# 
   352  0312                     	;# 
   353  0313                     	;# 
   354  0318                     	;# 
   355  0318                     	;# 
   356  0319                     	;# 
   357  031A                     	;# 
   358  0394                     	;# 
   359  0395                     	;# 
   360  0396                     	;# 
   361  039A                     	;# 
   362  039C                     	;# 
   363  039D                     	;# 
   364  039E                     	;# 
   365  039F                     	;# 
   366  0415                     	;# 
   367  0416                     	;# 
   368  0417                     	;# 
   369  041C                     	;# 
   370  041D                     	;# 
   371  041E                     	;# 
   372  0FE4                     	;# 
   373  0FE5                     	;# 
   374  0FE6                     	;# 
   375  0FE7                     	;# 
   376  0FE8                     	;# 
   377  0FE9                     	;# 
   378  0FEA                     	;# 
   379  0FEB                     	;# 
   380  0FED                     	;# 
   381  0FEE                     	;# 
   382  0FEF                     	;# 
   383  0000                     	;# 
   384  0001                     	;# 
   385  0002                     	;# 
   386  0003                     	;# 
   387  0004                     	;# 
   388  0005                     	;# 
   389  0006                     	;# 
   390  0007                     	;# 
   391  0008                     	;# 
   392  0009                     	;# 
   393  000A                     	;# 
   394  000B                     	;# 
   395  000C                     	;# 
   396  000D                     	;# 
   397  0011                     	;# 
   398  0012                     	;# 
   399  0013                     	;# 
   400  0014                     	;# 
   401  0015                     	;# 
   402  0016                     	;# 
   403  0016                     	;# 
   404  0017                     	;# 
   405  0018                     	;# 
   406  0019                     	;# 
   407  001A                     	;# 
   408  001B                     	;# 
   409  001C                     	;# 
   410  001E                     	;# 
   411  001F                     	;# 
   412  008C                     	;# 
   413  008D                     	;# 
   414  0091                     	;# 
   415  0092                     	;# 
   416  0093                     	;# 
   417  0094                     	;# 
   418  0095                     	;# 
   419  0096                     	;# 
   420  0097                     	;# 
   421  0098                     	;# 
   422  0099                     	;# 
   423  009A                     	;# 
   424  009B                     	;# 
   425  009B                     	;# 
   426  009C                     	;# 
   427  009D                     	;# 
   428  009E                     	;# 
   429  010C                     	;# 
   430  010D                     	;# 
   431  0111                     	;# 
   432  0112                     	;# 
   433  0113                     	;# 
   434  0114                     	;# 
   435  0115                     	;# 
   436  0116                     	;# 
   437  0117                     	;# 
   438  0118                     	;# 
   439  0119                     	;# 
   440  011A                     	;# 
   441  011B                     	;# 
   442  011D                     	;# 
   443  011E                     	;# 
   444  018C                     	;# 
   445  018D                     	;# 
   446  0191                     	;# 
   447  0191                     	;# 
   448  0192                     	;# 
   449  0193                     	;# 
   450  0193                     	;# 
   451  0193                     	;# 
   452  0194                     	;# 
   453  0195                     	;# 
   454  0196                     	;# 
   455  0199                     	;# 
   456  019A                     	;# 
   457  019B                     	;# 
   458  019B                     	;# 
   459  019B                     	;# 
   460  019B                     	;# 
   461  019C                     	;# 
   462  019C                     	;# 
   463  019D                     	;# 
   464  019E                     	;# 
   465  019F                     	;# 
   466  020C                     	;# 
   467  020D                     	;# 
   468  0211                     	;# 
   469  0211                     	;# 
   470  0212                     	;# 
   471  0212                     	;# 
   472  0213                     	;# 
   473  0213                     	;# 
   474  0214                     	;# 
   475  0214                     	;# 
   476  0215                     	;# 
   477  0215                     	;# 
   478  0215                     	;# 
   479  0216                     	;# 
   480  0216                     	;# 
   481  0217                     	;# 
   482  0217                     	;# 
   483  0219                     	;# 
   484  021A                     	;# 
   485  021B                     	;# 
   486  021C                     	;# 
   487  021D                     	;# 
   488  021E                     	;# 
   489  021F                     	;# 
   490  0291                     	;# 
   491  0291                     	;# 
   492  0292                     	;# 
   493  0293                     	;# 
   494  0294                     	;# 
   495  0295                     	;# 
   496  0295                     	;# 
   497  0296                     	;# 
   498  0298                     	;# 
   499  0298                     	;# 
   500  0299                     	;# 
   501  029A                     	;# 
   502  029B                     	;# 
   503  029C                     	;# 
   504  029C                     	;# 
   505  029D                     	;# 
   506  029E                     	;# 
   507  029E                     	;# 
   508  0311                     	;# 
   509  0311                     	;# 
   510  0312                     	;# 
   511  0313                     	;# 
   512  0318                     	;# 
   513  0318                     	;# 
   514  0319                     	;# 
   515  031A                     	;# 
   516  0394                     	;# 
   517  0395                     	;# 
   518  0396                     	;# 
   519  039A                     	;# 
   520  039C                     	;# 
   521  039D                     	;# 
   522  039E                     	;# 
   523  039F                     	;# 
   524  0415                     	;# 
   525  0416                     	;# 
   526  0417                     	;# 
   527  041C                     	;# 
   528  041D                     	;# 
   529  041E                     	;# 
   530  0FE4                     	;# 
   531  0FE5                     	;# 
   532  0FE6                     	;# 
   533  0FE7                     	;# 
   534  0FE8                     	;# 
   535  0FE9                     	;# 
   536  0FEA                     	;# 
   537  0FEB                     	;# 
   538  0FED                     	;# 
   539  0FEE                     	;# 
   540  0FEF                     	;# 
   541  0000                     	;# 
   542  0001                     	;# 
   543  0002                     	;# 
   544  0003                     	;# 
   545  0004                     	;# 
   546  0005                     	;# 
   547  0006                     	;# 
   548  0007                     	;# 
   549  0008                     	;# 
   550  0009                     	;# 
   551  000A                     	;# 
   552  000B                     	;# 
   553  000C                     	;# 
   554  000D                     	;# 
   555  0011                     	;# 
   556  0012                     	;# 
   557  0013                     	;# 
   558  0014                     	;# 
   559  0015                     	;# 
   560  0016                     	;# 
   561  0016                     	;# 
   562  0017                     	;# 
   563  0018                     	;# 
   564  0019                     	;# 
   565  001A                     	;# 
   566  001B                     	;# 
   567  001C                     	;# 
   568  001E                     	;# 
   569  001F                     	;# 
   570  008C                     	;# 
   571  008D                     	;# 
   572  0091                     	;# 
   573  0092                     	;# 
   574  0093                     	;# 
   575  0094                     	;# 
   576  0095                     	;# 
   577  0096                     	;# 
   578  0097                     	;# 
   579  0098                     	;# 
   580  0099                     	;# 
   581  009A                     	;# 
   582  009B                     	;# 
   583  009B                     	;# 
   584  009C                     	;# 
   585  009D                     	;# 
   586  009E                     	;# 
   587  010C                     	;# 
   588  010D                     	;# 
   589  0111                     	;# 
   590  0112                     	;# 
   591  0113                     	;# 
   592  0114                     	;# 
   593  0115                     	;# 
   594  0116                     	;# 
   595  0117                     	;# 
   596  0118                     	;# 
   597  0119                     	;# 
   598  011A                     	;# 
   599  011B                     	;# 
   600  011D                     	;# 
   601  011E                     	;# 
   602  018C                     	;# 
   603  018D                     	;# 
   604  0191                     	;# 
   605  0191                     	;# 
   606  0192                     	;# 
   607  0193                     	;# 
   608  0193                     	;# 
   609  0193                     	;# 
   610  0194                     	;# 
   611  0195                     	;# 
   612  0196                     	;# 
   613  0199                     	;# 
   614  019A                     	;# 
   615  019B                     	;# 
   616  019B                     	;# 
   617  019B                     	;# 
   618  019B                     	;# 
   619  019C                     	;# 
   620  019C                     	;# 
   621  019D                     	;# 
   622  019E                     	;# 
   623  019F                     	;# 
   624  020C                     	;# 
   625  020D                     	;# 
   626  0211                     	;# 
   627  0211                     	;# 
   628  0212                     	;# 
   629  0212                     	;# 
   630  0213                     	;# 
   631  0213                     	;# 
   632  0214                     	;# 
   633  0214                     	;# 
   634  0215                     	;# 
   635  0215                     	;# 
   636  0215                     	;# 
   637  0216                     	;# 
   638  0216                     	;# 
   639  0217                     	;# 
   640  0217                     	;# 
   641  0219                     	;# 
   642  021A                     	;# 
   643  021B                     	;# 
   644  021C                     	;# 
   645  021D                     	;# 
   646  021E                     	;# 
   647  021F                     	;# 
   648  0291                     	;# 
   649  0291                     	;# 
   650  0292                     	;# 
   651  0293                     	;# 
   652  0294                     	;# 
   653  0295                     	;# 
   654  0295                     	;# 
   655  0296                     	;# 
   656  0298                     	;# 
   657  0298                     	;# 
   658  0299                     	;# 
   659  029A                     	;# 
   660  029B                     	;# 
   661  029C                     	;# 
   662  029C                     	;# 
   663  029D                     	;# 
   664  029E                     	;# 
   665  029E                     	;# 
   666  0311                     	;# 
   667  0311                     	;# 
   668  0312                     	;# 
   669  0313                     	;# 
   670  0318                     	;# 
   671  0318                     	;# 
   672  0319                     	;# 
   673  031A                     	;# 
   674  0394                     	;# 
   675  0395                     	;# 
   676  0396                     	;# 
   677  039A                     	;# 
   678  039C                     	;# 
   679  039D                     	;# 
   680  039E                     	;# 
   681  039F                     	;# 
   682  0415                     	;# 
   683  0416                     	;# 
   684  0417                     	;# 
   685  041C                     	;# 
   686  041D                     	;# 
   687  041E                     	;# 
   688  0FE4                     	;# 
   689  0FE5                     	;# 
   690  0FE6                     	;# 
   691  0FE7                     	;# 
   692  0FE8                     	;# 
   693  0FE9                     	;# 
   694  0FEA                     	;# 
   695  0FEB                     	;# 
   696  0FED                     	;# 
   697  0FEE                     	;# 
   698  0FEF                     	;# 
   699  0000                     	;# 
   700  0001                     	;# 
   701  0002                     	;# 
   702  0003                     	;# 
   703  0004                     	;# 
   704  0005                     	;# 
   705  0006                     	;# 
   706  0007                     	;# 
   707  0008                     	;# 
   708  0009                     	;# 
   709  000A                     	;# 
   710  000B                     	;# 
   711  000C                     	;# 
   712  000D                     	;# 
   713  0011                     	;# 
   714  0012                     	;# 
   715  0013                     	;# 
   716  0014                     	;# 
   717  0015                     	;# 
   718  0016                     	;# 
   719  0016                     	;# 
   720  0017                     	;# 
   721  0018                     	;# 
   722  0019                     	;# 
   723  001A                     	;# 
   724  001B                     	;# 
   725  001C                     	;# 
   726  001E                     	;# 
   727  001F                     	;# 
   728  008C                     	;# 
   729  008D                     	;# 
   730  0091                     	;# 
   731  0092                     	;# 
   732  0093                     	;# 
   733  0094                     	;# 
   734  0095                     	;# 
   735  0096                     	;# 
   736  0097                     	;# 
   737  0098                     	;# 
   738  0099                     	;# 
   739  009A                     	;# 
   740  009B                     	;# 
   741  009B                     	;# 
   742  009C                     	;# 
   743  009D                     	;# 
   744  009E                     	;# 
   745  010C                     	;# 
   746  010D                     	;# 
   747  0111                     	;# 
   748  0112                     	;# 
   749  0113                     	;# 
   750  0114                     	;# 
   751  0115                     	;# 
   752  0116                     	;# 
   753  0117                     	;# 
   754  0118                     	;# 
   755  0119                     	;# 
   756  011A                     	;# 
   757  011B                     	;# 
   758  011D                     	;# 
   759  011E                     	;# 
   760  018C                     	;# 
   761  018D                     	;# 
   762  0191                     	;# 
   763  0191                     	;# 
   764  0192                     	;# 
   765  0193                     	;# 
   766  0193                     	;# 
   767  0193                     	;# 
   768  0194                     	;# 
   769  0195                     	;# 
   770  0196                     	;# 
   771  0199                     	;# 
   772  019A                     	;# 
   773  019B                     	;# 
   774  019B                     	;# 
   775  019B                     	;# 
   776  019B                     	;# 
   777  019C                     	;# 
   778  019C                     	;# 
   779  019D                     	;# 
   780  019E                     	;# 
   781  019F                     	;# 
   782  020C                     	;# 
   783  020D                     	;# 
   784  0211                     	;# 
   785  0211                     	;# 
   786  0212                     	;# 
   787  0212                     	;# 
   788  0213                     	;# 
   789  0213                     	;# 
   790  0214                     	;# 
   791  0214                     	;# 
   792  0215                     	;# 
   793  0215                     	;# 
   794  0215                     	;# 
   795  0216                     	;# 
   796  0216                     	;# 
   797  0217                     	;# 
   798  0217                     	;# 
   799  0219                     	;# 
   800  021A                     	;# 
   801  021B                     	;# 
   802  021C                     	;# 
   803  021D                     	;# 
   804  021E                     	;# 
   805  021F                     	;# 
   806  0291                     	;# 
   807  0291                     	;# 
   808  0292                     	;# 
   809  0293                     	;# 
   810  0294                     	;# 
   811  0295                     	;# 
   812  0295                     	;# 
   813  0296                     	;# 
   814  0298                     	;# 
   815  0298                     	;# 
   816  0299                     	;# 
   817  029A                     	;# 
   818  029B                     	;# 
   819  029C                     	;# 
   820  029C                     	;# 
   821  029D                     	;# 
   822  029E                     	;# 
   823  029E                     	;# 
   824  0311                     	;# 
   825  0311                     	;# 
   826  0312                     	;# 
   827  0313                     	;# 
   828  0318                     	;# 
   829  0318                     	;# 
   830  0319                     	;# 
   831  031A                     	;# 
   832  0394                     	;# 
   833  0395                     	;# 
   834  0396                     	;# 
   835  039A                     	;# 
   836  039C                     	;# 
   837  039D                     	;# 
   838  039E                     	;# 
   839  039F                     	;# 
   840  0415                     	;# 
   841  0416                     	;# 
   842  0417                     	;# 
   843  041C                     	;# 
   844  041D                     	;# 
   845  041E                     	;# 
   846  0FE4                     	;# 
   847  0FE5                     	;# 
   848  0FE6                     	;# 
   849  0FE7                     	;# 
   850  0FE8                     	;# 
   851  0FE9                     	;# 
   852  0FEA                     	;# 
   853  0FEB                     	;# 
   854  0FED                     	;# 
   855  0FEE                     	;# 
   856  0FEF                     	;# 
   857  0000                     	;# 
   858  0001                     	;# 
   859  0002                     	;# 
   860  0003                     	;# 
   861  0004                     	;# 
   862  0005                     	;# 
   863  0006                     	;# 
   864  0007                     	;# 
   865  0008                     	;# 
   866  0009                     	;# 
   867  000A                     	;# 
   868  000B                     	;# 
   869  000C                     	;# 
   870  000D                     	;# 
   871  0011                     	;# 
   872  0012                     	;# 
   873  0013                     	;# 
   874  0014                     	;# 
   875  0015                     	;# 
   876  0016                     	;# 
   877  0016                     	;# 
   878  0017                     	;# 
   879  0018                     	;# 
   880  0019                     	;# 
   881  001A                     	;# 
   882  001B                     	;# 
   883  001C                     	;# 
   884  001E                     	;# 
   885  001F                     	;# 
   886  008C                     	;# 
   887  008D                     	;# 
   888  0091                     	;# 
   889  0092                     	;# 
   890  0093                     	;# 
   891  0094                     	;# 
   892  0095                     	;# 
   893  0096                     	;# 
   894  0097                     	;# 
   895  0098                     	;# 
   896  0099                     	;# 
   897  009A                     	;# 
   898  009B                     	;# 
   899  009B                     	;# 
   900  009C                     	;# 
   901  009D                     	;# 
   902  009E                     	;# 
   903  010C                     	;# 
   904  010D                     	;# 
   905  0111                     	;# 
   906  0112                     	;# 
   907  0113                     	;# 
   908  0114                     	;# 
   909  0115                     	;# 
   910  0116                     	;# 
   911  0117                     	;# 
   912  0118                     	;# 
   913  0119                     	;# 
   914  011A                     	;# 
   915  011B                     	;# 
   916  011D                     	;# 
   917  011E                     	;# 
   918  018C                     	;# 
   919  018D                     	;# 
   920  0191                     	;# 
   921  0191                     	;# 
   922  0192                     	;# 
   923  0193                     	;# 
   924  0193                     	;# 
   925  0193                     	;# 
   926  0194                     	;# 
   927  0195                     	;# 
   928  0196                     	;# 
   929  0199                     	;# 
   930  019A                     	;# 
   931  019B                     	;# 
   932  019B                     	;# 
   933  019B                     	;# 
   934  019B                     	;# 
   935  019C                     	;# 
   936  019C                     	;# 
   937  019D                     	;# 
   938  019E                     	;# 
   939  019F                     	;# 
   940  020C                     	;# 
   941  020D                     	;# 
   942  0211                     	;# 
   943  0211                     	;# 
   944  0212                     	;# 
   945  0212                     	;# 
   946  0213                     	;# 
   947  0213                     	;# 
   948  0214                     	;# 
   949  0214                     	;# 
   950  0215                     	;# 
   951  0215                     	;# 
   952  0215                     	;# 
   953  0216                     	;# 
   954  0216                     	;# 
   955  0217                     	;# 
   956  0217                     	;# 
   957  0219                     	;# 
   958  021A                     	;# 
   959  021B                     	;# 
   960  021C                     	;# 
   961  021D                     	;# 
   962  021E                     	;# 
   963  021F                     	;# 
   964  0291                     	;# 
   965  0291                     	;# 
   966  0292                     	;# 
   967  0293                     	;# 
   968  0294                     	;# 
   969  0295                     	;# 
   970  0295                     	;# 
   971  0296                     	;# 
   972  0298                     	;# 
   973  0298                     	;# 
   974  0299                     	;# 
   975  029A                     	;# 
   976  029B                     	;# 
   977  029C                     	;# 
   978  029C                     	;# 
   979  029D                     	;# 
   980  029E                     	;# 
   981  029E                     	;# 
   982  0311                     	;# 
   983  0311                     	;# 
   984  0312                     	;# 
   985  0313                     	;# 
   986  0318                     	;# 
   987  0318                     	;# 
   988  0319                     	;# 
   989  031A                     	;# 
   990  0394                     	;# 
   991  0395                     	;# 
   992  0396                     	;# 
   993  039A                     	;# 
   994  039C                     	;# 
   995  039D                     	;# 
   996  039E                     	;# 
   997  039F                     	;# 
   998  0415                     	;# 
   999  0416                     	;# 
  1000  0417                     	;# 
  1001  041C                     	;# 
  1002  041D                     	;# 
  1003  041E                     	;# 
  1004  0FE4                     	;# 
  1005  0FE5                     	;# 
  1006  0FE6                     	;# 
  1007  0FE7                     	;# 
  1008  0FE8                     	;# 
  1009  0FE9                     	;# 
  1010  0FEA                     	;# 
  1011  0FEB                     	;# 
  1012  0FED                     	;# 
  1013  0FEE                     	;# 
  1014  0FEF                     	;# 
  1015                           
  1016                           	psect	idataBANK0
  1017  05DB                     __pidataBANK0:
  1018                           
  1019                           ;initializer for lcd_set_cursor@F2502
  1020  05DB  3400               	retlw	0
  1021  05DC  3440               	retlw	64
  1022  05DD  3414               	retlw	20
  1023  05DE  3454               	retlw	84
  1024  0095                     _OPTION_REGbits	set	149
  1025  0097                     _WDTCON	set	151
  1026  0098                     _OSCTUNE	set	152
  1027  0099                     _OSCCON	set	153
  1028  008C                     _TRISA	set	140
  1029  0116                     _BORCON	set	278
  1030  011E                     _APFCON1	set	286
  1031  011D                     _APFCON0	set	285
  1032  010D                     _LATB	set	269
  1033  010C                     _LATA	set	268
  1034  018C                     _ANSELA	set	396
  1035  018D                     _ANSELB	set	397
  1036  021D                     _SSP2CON1bits	set	541
  1037  021C                     _SSP2STATbits	set	540
  1038  0219                     _SSP2BUF	set	537
  1039  021E                     _SSP2CON2bits	set	542
  1040  021C                     _SSP2STAT	set	540
  1041  021E                     _SSP2CON2	set	542
  1042  021D                     _SSP2CON1	set	541
  1043  021A                     _SSP2ADD	set	538
  1044  020D                     _WPUB	set	525
  1045                           
  1046                           	psect	stringtext1
  1047  0800                     __pstringtext1:
  1048  0800                     STR_2:
  1049  0800  3431               	retlw	49	;'1'
  1050  0801  3432               	retlw	50	;'2'
  1051  0802  343A               	retlw	58	;':'
  1052  0803  3430               	retlw	48	;'0'
  1053  0804  3430               	retlw	48	;'0'
  1054  0805  3400               	retlw	0
  1055                           
  1056                           	psect	stringtext2
  1057  0806                     __pstringtext2:
  1058  0806                     STR_1:
  1059  0806  3448               	retlw	72	;'H'
  1060  0807  3449               	retlw	73	;'I'
  1061  0808  345A               	retlw	90	;'Z'
  1062  0809  3400               	retlw	0
  1063                           
  1064                           	psect	stringtext3
  1065  080A                     __pstringtext3:
  1066  080A                     STR_3:
  1067  080A  3420               	retlw	32	;' '
  1068  080B  3400               	retlw	0
  1069                           
  1070                           	psect	stringtext4
  1071  0000                     __pstringtext4:
  1072                           
  1073                           	psect	cinit
  1074  07EC                     start_initialization:	
  1075                           ; #config settings
  1076                           
  1077  07EC                     __initialization:
  1078                           
  1079                           ; Initialize objects allocated to BANK0
  1080  07EC  3185  25DB  3187   	fcall	__pidataBANK0	;fetch initializer
  1081  07EF  00A6               	movwf	__pdataBANK0& (0+127)
  1082  07F0  3185  25DC  3187   	fcall	__pidataBANK0+1	;fetch initializer
  1083  07F3  00A7               	movwf	(__pdataBANK0+1)& (0+127)
  1084  07F4  3185  25DD  3187   	fcall	__pidataBANK0+2	;fetch initializer
  1085  07F7  00A8               	movwf	(__pdataBANK0+2)& (0+127)
  1086  07F8  3185  25DE  3187   	fcall	__pidataBANK0+3	;fetch initializer
  1087  07FB  00A9               	movwf	(__pdataBANK0+3)& (0+127)
  1088                           
  1089                           ; Clear objects allocated to BANK0
  1090  07FC  01AA               	clrf	__pbssBANK0& (0+127)
  1091  07FD                     end_of_initialization:	
  1092                           ;End of C runtime variable initialization code
  1093                           
  1094  07FD                     __end_of__initialization:
  1095  07FD  0020               	movlb	0
  1096  07FE  3186  2EC5         	ljmp	_main	;jump to C main() function
  1097                           
  1098                           	psect	bssBANK0
  1099  002A                     __pbssBANK0:
  1100  002A                     __backlightval:
  1101  002A                     	ds	1
  1102                           
  1103                           	psect	dataBANK0
  1104  0026                     __pdataBANK0:
  1105  0026                     lcd_set_cursor@F2502:
  1106  0026                     	ds	4
  1107                           
  1108                           	psect	cstackCOMMON
  1109  0070                     __pcstackCOMMON:
  1110  0070                     ?_OSCILLATOR_Initialize:
  1111  0070                     ??_OSCILLATOR_Initialize:	
  1112                           ; 1 bytes @ 0x0
  1113                           
  1114  0070                     ?_WDT_Initialize:	
  1115                           ; 1 bytes @ 0x0
  1116                           
  1117  0070                     ??_WDT_Initialize:	
  1118                           ; 1 bytes @ 0x0
  1119                           
  1120  0070                     ?_lcd_init:	
  1121                           ; 1 bytes @ 0x0
  1122                           
  1123  0070                     ?_lcd_backlight:	
  1124                           ; 1 bytes @ 0x0
  1125                           
  1126  0070                     ?_PIN_MANAGER_Initialize:	
  1127                           ; 1 bytes @ 0x0
  1128                           
  1129  0070                     ??_PIN_MANAGER_Initialize:	
  1130                           ; 1 bytes @ 0x0
  1131                           
  1132  0070                     ?_SYSTEM_Initialize:	
  1133                           ; 1 bytes @ 0x0
  1134                           
  1135  0070                     ??_SYSTEM_Initialize:	
  1136                           ; 1 bytes @ 0x0
  1137                           
  1138  0070                     ?_main:	
  1139                           ; 1 bytes @ 0x0
  1140                           
  1141  0070                     ?_i2c_wait:	
  1142                           ; 1 bytes @ 0x0
  1143                           
  1144  0070                     ??_i2c_wait:	
  1145                           ; 1 bytes @ 0x0
  1146                           
  1147  0070                     ?_i2c_start:	
  1148                           ; 1 bytes @ 0x0
  1149                           
  1150  0070                     ??_i2c_start:	
  1151                           ; 1 bytes @ 0x0
  1152                           
  1153  0070                     ?_i2c_stop:	
  1154                           ; 1 bytes @ 0x0
  1155                           
  1156  0070                     ??_i2c_stop:	
  1157                           ; 1 bytes @ 0x0
  1158                           
  1159  0070                     ?_i2c_write:	
  1160                           ; 1 bytes @ 0x0
  1161                           
  1162  0070                     ??_i2c_write:	
  1163                           ; 1 bytes @ 0x0
  1164                           
  1165  0070                     ?_lcd_cmd:	
  1166                           ; 1 bytes @ 0x0
  1167                           
  1168  0070                     i2c_write@data:	
  1169                           ; 1 bytes @ 0x0
  1170                           
  1171                           
  1172                           ; 1 bytes @ 0x0
  1173  0070                     	ds	1
  1174  0071                     ??_lcd_cmd:
  1175  0071                     lcd_cmd@cmd:	
  1176                           ; 1 bytes @ 0x1
  1177                           
  1178                           
  1179                           ; 1 bytes @ 0x1
  1180  0071                     	ds	1
  1181  0072                     ??_lcd_init:
  1182  0072                     ??_lcd_backlight:	
  1183                           ; 1 bytes @ 0x2
  1184                           
  1185  0072                     ?_command:	
  1186                           ; 1 bytes @ 0x2
  1187                           
  1188  0072                     command@mode:	
  1189                           ; 1 bytes @ 0x2
  1190                           
  1191                           
  1192                           ; 1 bytes @ 0x2
  1193  0072                     	ds	1
  1194  0073                     ??_command:
  1195                           
  1196                           ; 1 bytes @ 0x3
  1197  0073                     	ds	2
  1198  0075                     command@val:
  1199                           
  1200                           ; 1 bytes @ 0x5
  1201  0075                     	ds	1
  1202  0076                     command@highnib:
  1203                           
  1204                           ; 1 bytes @ 0x6
  1205  0076                     	ds	1
  1206  0077                     command@lownib:
  1207                           
  1208                           ; 1 bytes @ 0x7
  1209  0077                     	ds	1
  1210  0078                     ?_lcd_set_cursor:
  1211  0078                     ?_lcd_print:	
  1212                           ; 1 bytes @ 0x8
  1213                           
  1214  0078                     lcd_set_cursor@row:	
  1215                           ; 1 bytes @ 0x8
  1216                           
  1217  0078                     lcd_print@str:	
  1218                           ; 1 bytes @ 0x8
  1219                           
  1220                           
  1221                           ; 2 bytes @ 0x8
  1222  0078                     	ds	1
  1223  0079                     ??_lcd_set_cursor:
  1224                           
  1225                           ; 1 bytes @ 0x9
  1226  0079                     	ds	1
  1227  007A                     ??_lcd_print:
  1228                           
  1229                           ; 1 bytes @ 0xA
  1230  007A                     	ds	1
  1231  007B                     lcd_print@cmd:
  1232                           
  1233                           ; 1 bytes @ 0xB
  1234  007B                     	ds	1
  1235  007C                     ??_main:
  1236                           
  1237                           ; 1 bytes @ 0xC
  1238  007C                     	ds	2
  1239                           
  1240                           	psect	cstackBANK0
  1241  0020                     __pcstackBANK0:
  1242  0020                     lcd_set_cursor@row_offsets:
  1243                           
  1244                           ; 4 bytes @ 0x0
  1245  0020                     	ds	4
  1246  0024                     lcd_set_cursor@col:
  1247                           
  1248                           ; 1 bytes @ 0x4
  1249  0024                     	ds	1
  1250  0025                     lcd_set_cursor@cmd:
  1251                           
  1252                           ; 1 bytes @ 0x5
  1253  0025                     	ds	1
  1254                           
  1255                           	psect	maintext
  1256  06C5                     __pmaintext:	
  1257 ;;
  1258 ;;Main: autosize = 0, tempsize = 2, incstack = 0, save=0
  1259 ;;
  1260 ;; *************** function _main *****************
  1261 ;; Defined at:
  1262 ;;		line 7 in file "main.c"
  1263 ;; Parameters:    Size  Location     Type
  1264 ;;		None
  1265 ;; Auto vars:     Size  Location     Type
  1266 ;;		None
  1267 ;; Return value:  Size  Location     Type
  1268 ;;                  1    wreg      void 
  1269 ;; Registers used:
  1270 ;;		wreg, fsr0l, fsr0h, fsr1l, fsr1h, status,2, status,0, pclath, cstack
  1271 ;; Tracked objects:
  1272 ;;		On entry : B1F/0
  1273 ;;		On exit  : 0/0
  1274 ;;		Unchanged: 0/0
  1275 ;; Data sizes:     COMMON   BANK0   BANK1   BANK2   BANK3   BANK4
  1276 ;;      Params:         0       0       0       0       0       0
  1277 ;;      Locals:         0       0       0       0       0       0
  1278 ;;      Temps:          2       0       0       0       0       0
  1279 ;;      Totals:         2       0       0       0       0       0
  1280 ;;Total ram usage:        2 bytes
  1281 ;; Hardware stack levels required when called: 5
  1282 ;; This function calls:
  1283 ;;		_SYSTEM_Initialize
  1284 ;;		_lcd_backlight
  1285 ;;		_lcd_init
  1286 ;;		_lcd_print
  1287 ;;		_lcd_set_cursor
  1288 ;; This function is called by:
  1289 ;;		Startup code after reset
  1290 ;; This function uses a non-reentrant model
  1291 ;;
  1292                           
  1293                           
  1294                           ;psect for function _main
  1295  06C5                     _main:
  1296  06C5                     l1123:	
  1297                           ;incstack = 0
  1298                           ; Regs used in _main: [wreg-fsr1h+status,2+status,0+pclath+cstack]
  1299                           
  1300                           
  1301                           ;main.c: 10:     SYSTEM_Initialize();
  1302  06C5  3185  25ED  3186   	fcall	_SYSTEM_Initialize
  1303  06C8                     l1125:
  1304                           
  1305                           ;main.c: 12:     WPUB = 0x24;
  1306  06C8  3024               	movlw	36
  1307  06C9  0024               	movlb	4	; select bank4
  1308  06CA  008D               	movwf	13	;volatile
  1309  06CB                     l1127:
  1310                           
  1311                           ;main.c: 13:     OPTION_REGbits.nWPUEN = 0;
  1312  06CB  0021               	movlb	1	; select bank1
  1313  06CC  1395               	bcf	21,7	;volatile
  1314  06CD                     l1129:
  1315                           
  1316                           ;main.c: 15:     SSP2ADD = 0x13;
  1317  06CD  3013               	movlw	19
  1318  06CE  0024               	movlb	4	; select bank4
  1319  06CF  009A               	movwf	26	;volatile
  1320  06D0                     l1131:
  1321                           
  1322                           ;main.c: 16:     SSP2CON1 = 0x28;
  1323  06D0  3028               	movlw	40
  1324  06D1  009D               	movwf	29	;volatile
  1325  06D2                     l1133:
  1326                           
  1327                           ;main.c: 17:     SSP2CON2 = 0x0;
  1328  06D2  019E               	clrf	30	;volatile
  1329  06D3                     l1135:
  1330                           
  1331                           ;main.c: 18:     SSP2STAT = 0;
  1332  06D3  019C               	clrf	28	;volatile
  1333  06D4                     l1137:
  1334                           
  1335                           ;main.c: 20:     lcd_init();
  1336  06D4  3187  2700  3186   	fcall	_lcd_init
  1337  06D7                     l1139:
  1338                           
  1339                           ;main.c: 21:     lcd_backlight();
  1340  06D7  3186  260D  3186   	fcall	_lcd_backlight
  1341  06DA                     l1141:
  1342                           
  1343                           ;main.c: 22:     lcd_set_cursor(0, 0);
  1344  06DA  01F8               	clrf	lcd_set_cursor@row
  1345  06DB  3000               	movlw	0
  1346  06DC  3186  266B  3186   	fcall	_lcd_set_cursor
  1347  06DF                     l1143:
  1348                           
  1349                           ;main.c: 24:     lcd_print("HIZ");
  1350  06DF  3006               	movlw	low (STR_1| (0+32768))
  1351  06E0  00F8               	movwf	lcd_print@str
  1352  06E1  3088               	movlw	high (STR_1| (0+32768))
  1353  06E2  00F9               	movwf	lcd_print@str+1
  1354  06E3  3186  264E  3186   	fcall	_lcd_print
  1355  06E6                     l1145:
  1356                           
  1357                           ;main.c: 26:     _delay((unsigned long)((1000)*(8000000/4000.0)));
  1358  06E6  300B               	movlw	11
  1359  06E7  00FD               	movwf	??_main+1
  1360  06E8  3026               	movlw	38
  1361  06E9  00FC               	movwf	??_main
  1362  06EA  305E               	movlw	94
  1363  06EB                     u277:
  1364  06EB  0B89               	decfsz	9,f
  1365  06EC  2EEB               	goto	u277
  1366  06ED  0BFC               	decfsz	??_main,f
  1367  06EE  2EEB               	goto	u277
  1368  06EF  0BFD               	decfsz	??_main+1,f
  1369  06F0  2EEB               	goto	u277
  1370  06F1                     l1147:
  1371                           
  1372                           ;main.c: 28:     lcd_set_cursor(3, 0);
  1373  06F1  01F8               	clrf	lcd_set_cursor@row
  1374  06F2  3003               	movlw	3
  1375  06F3  3186  266B  3186   	fcall	_lcd_set_cursor
  1376  06F6                     l1149:
  1377                           
  1378                           ;main.c: 29:     lcd_print("12:00");
  1379  06F6  3000               	movlw	low (STR_2| (0+32768))
  1380  06F7  00F8               	movwf	lcd_print@str
  1381  06F8  3088               	movlw	high (STR_2| (0+32768))
  1382  06F9  00F9               	movwf	lcd_print@str+1
  1383  06FA  3186  264E  3186   	fcall	_lcd_print
  1384  06FD                     l72:	
  1385                           ;main.c: 31:     while(1){}
  1386                           
  1387  06FD                     l73:
  1388  06FD  2EFD               	goto	l72
  1389  06FE  3180  2802         	ljmp	start
  1390  0700                     __end_of_main:
  1391                           
  1392                           	psect	text1
  1393  066B                     __ptext1:	
  1394 ;; *************** function _lcd_set_cursor *****************
  1395 ;; Defined at:
  1396 ;;		line 128 in file "lcd_lib.c"
  1397 ;; Parameters:    Size  Location     Type
  1398 ;;  col             1    wreg     unsigned char 
  1399 ;;  row             1    8[COMMON] unsigned char 
  1400 ;; Auto vars:     Size  Location     Type
  1401 ;;  col             1    4[BANK0 ] unsigned char 
  1402 ;;  row_offsets     4    0[BANK0 ] unsigned char [4]
  1403 ;;  cmd             1    5[BANK0 ] unsigned char 
  1404 ;; Return value:  Size  Location     Type
  1405 ;;                  1    wreg      void 
  1406 ;; Registers used:
  1407 ;;		wreg, fsr1l, fsr1h, status,2, status,0, pclath, cstack
  1408 ;; Tracked objects:
  1409 ;;		On entry : 0/0
  1410 ;;		On exit  : 0/0
  1411 ;;		Unchanged: 0/0
  1412 ;; Data sizes:     COMMON   BANK0   BANK1   BANK2   BANK3   BANK4
  1413 ;;      Params:         1       0       0       0       0       0
  1414 ;;      Locals:         0       6       0       0       0       0
  1415 ;;      Temps:          1       0       0       0       0       0
  1416 ;;      Totals:         2       6       0       0       0       0
  1417 ;;Total ram usage:        8 bytes
  1418 ;; Hardware stack levels used: 1
  1419 ;; Hardware stack levels required when called: 4
  1420 ;; This function calls:
  1421 ;;		_command
  1422 ;; This function is called by:
  1423 ;;		_main
  1424 ;;		_lcd_clear
  1425 ;; This function uses a non-reentrant model
  1426 ;;
  1427                           
  1428                           
  1429                           ;psect for function _lcd_set_cursor
  1430  066B                     _lcd_set_cursor:
  1431                           
  1432                           ;incstack = 0
  1433                           ; Regs used in _lcd_set_cursor: [wreg+fsr1l+fsr1h+status,2+status,0+pclath+cstack]
  1434                           ;lcd_set_cursor@col stored from wreg
  1435  066B  0020               	movlb	0	; select bank0
  1436  066C  00A4               	movwf	lcd_set_cursor@col
  1437  066D                     l1105:
  1438                           
  1439                           ;lcd_lib.c: 129:     uint8_t row_offsets[] = {0x00, 0x40, 0x14, 0x54};
  1440  066D  0829               	movf	lcd_set_cursor@F2502+3,w
  1441  066E  00A3               	movwf	lcd_set_cursor@row_offsets+3
  1442  066F  0828               	movf	lcd_set_cursor@F2502+2,w
  1443  0670  00A2               	movwf	lcd_set_cursor@row_offsets+2
  1444  0671  0827               	movf	lcd_set_cursor@F2502+1,w
  1445  0672  00A1               	movwf	lcd_set_cursor@row_offsets+1
  1446  0673  0826               	movf	lcd_set_cursor@F2502,w
  1447  0674  00A0               	movwf	lcd_set_cursor@row_offsets
  1448                           
  1449                           ;lcd_lib.c: 130:     if(row > 2){
  1450  0675  3003               	movlw	3
  1451  0676  0278               	subwf	lcd_set_cursor@row,w
  1452  0677  1C03               	skipc
  1453  0678  2E7A               	goto	u211
  1454  0679  2E7B               	goto	u210
  1455  067A                     u211:
  1456  067A  2E7D               	goto	l1109
  1457  067B                     u210:
  1458  067B                     l1107:
  1459                           
  1460                           ;lcd_lib.c: 131:         row = 2 - 1;
  1461  067B  01F8               	clrf	lcd_set_cursor@row
  1462  067C  0AF8               	incf	lcd_set_cursor@row,f
  1463  067D                     l1109:
  1464                           
  1465                           ;lcd_lib.c: 133:     uint8_t cmd = 0x80 | (col + row_offsets[row]);
  1466  067D  0878               	movf	lcd_set_cursor@row,w
  1467  067E  3E20               	addlw	(low (lcd_set_cursor@row_offsets| 0))& (0+255)
  1468  067F  0086               	movwf	6
  1469  0680  0187               	clrf	7
  1470  0681  0801               	movf	1,w
  1471  0682  0724               	addwf	lcd_set_cursor@col,w
  1472  0683  3880               	iorlw	128
  1473  0684  00F9               	movwf	??_lcd_set_cursor
  1474  0685  0879               	movf	??_lcd_set_cursor,w
  1475  0686  00A5               	movwf	lcd_set_cursor@cmd
  1476  0687                     l1111:
  1477                           
  1478                           ;lcd_lib.c: 134:     command(cmd, 0);
  1479  0687  01F2               	clrf	command@mode
  1480  0688  0825               	movf	lcd_set_cursor@cmd,w
  1481  0689  3186  268D  3186   	fcall	_command
  1482  068C                     l164:
  1483  068C  0008               	return
  1484  068D                     __end_of_lcd_set_cursor:
  1485                           
  1486                           	psect	text2
  1487  064E                     __ptext2:	
  1488 ;; *************** function _lcd_print *****************
  1489 ;; Defined at:
  1490 ;;		line 137 in file "lcd_lib.c"
  1491 ;; Parameters:    Size  Location     Type
  1492 ;;  str             2    8[COMMON] PTR unsigned char 
  1493 ;;		 -> STR_3(2), STR_2(6), STR_1(4), 
  1494 ;; Auto vars:     Size  Location     Type
  1495 ;;  cmd             1   11[COMMON] unsigned char 
  1496 ;; Return value:  Size  Location     Type
  1497 ;;                  1    wreg      void 
  1498 ;; Registers used:
  1499 ;;		wreg, fsr0l, fsr0h, status,2, status,0, pclath, cstack
  1500 ;; Tracked objects:
  1501 ;;		On entry : 0/0
  1502 ;;		On exit  : 0/0
  1503 ;;		Unchanged: 0/0
  1504 ;; Data sizes:     COMMON   BANK0   BANK1   BANK2   BANK3   BANK4
  1505 ;;      Params:         2       0       0       0       0       0
  1506 ;;      Locals:         1       0       0       0       0       0
  1507 ;;      Temps:          1       0       0       0       0       0
  1508 ;;      Totals:         4       0       0       0       0       0
  1509 ;;Total ram usage:        4 bytes
  1510 ;; Hardware stack levels used: 1
  1511 ;; Hardware stack levels required when called: 4
  1512 ;; This function calls:
  1513 ;;		_command
  1514 ;; This function is called by:
  1515 ;;		_main
  1516 ;;		_lcd_clear
  1517 ;; This function uses a non-reentrant model
  1518 ;;
  1519                           
  1520                           
  1521                           ;psect for function _lcd_print
  1522  064E                     _lcd_print:
  1523  064E                     l1113:	
  1524                           ;incstack = 0
  1525                           ; Regs used in _lcd_print: [wreg-fsr0h+status,2+status,0+pclath+cstack]
  1526                           
  1527                           
  1528                           ;lcd_lib.c: 138:     while (*str) {
  1529  064E  2E61               	goto	l1121
  1530  064F                     l1115:
  1531                           
  1532                           ;lcd_lib.c: 139:         uint8_t cmd = *str++;
  1533  064F  0878               	movf	lcd_print@str,w
  1534  0650  0084               	movwf	4
  1535  0651  0879               	movf	lcd_print@str+1,w
  1536  0652  0085               	movwf	5
  1537  0653  0800               	movf	0,w	;code access
  1538  0654  00FA               	movwf	??_lcd_print
  1539  0655  087A               	movf	??_lcd_print,w
  1540  0656  00FB               	movwf	lcd_print@cmd
  1541  0657                     l1117:
  1542  0657  3001               	movlw	1
  1543  0658  07F8               	addwf	lcd_print@str,f
  1544  0659  3000               	movlw	0
  1545  065A  3DF9               	addwfc	lcd_print@str+1,f
  1546  065B                     l1119:
  1547                           
  1548                           ;lcd_lib.c: 140:         command(cmd, 0b00000001);
  1549  065B  01F2               	clrf	command@mode
  1550  065C  0AF2               	incf	command@mode,f
  1551  065D  087B               	movf	lcd_print@cmd,w
  1552  065E  3186  268D  3186   	fcall	_command
  1553  0661                     l1121:
  1554                           
  1555                           ;lcd_lib.c: 138:     while (*str) {
  1556  0661  0878               	movf	lcd_print@str,w
  1557  0662  0084               	movwf	4
  1558  0663  0879               	movf	lcd_print@str+1,w
  1559  0664  0085               	movwf	5
  1560  0665  0012               	moviw fsr0++
  1561  0666  1D03               	btfss	3,2
  1562  0667  2E69               	goto	u221
  1563  0668  2E6A               	goto	u220
  1564  0669                     u221:
  1565  0669  2E4F               	goto	l1115
  1566  066A                     u220:
  1567  066A                     l170:
  1568  066A  0008               	return
  1569  066B                     __end_of_lcd_print:
  1570                           
  1571                           	psect	text3
  1572  068D                     __ptext3:	
  1573 ;; *************** function _command *****************
  1574 ;; Defined at:
  1575 ;;		line 144 in file "lcd_lib.c"
  1576 ;; Parameters:    Size  Location     Type
  1577 ;;  val             1    wreg     unsigned char 
  1578 ;;  mode            1    2[COMMON] unsigned char 
  1579 ;; Auto vars:     Size  Location     Type
  1580 ;;  val             1    5[COMMON] unsigned char 
  1581 ;;  lownib          1    7[COMMON] unsigned char 
  1582 ;;  highnib         1    6[COMMON] unsigned char 
  1583 ;; Return value:  Size  Location     Type
  1584 ;;                  1    wreg      void 
  1585 ;; Registers used:
  1586 ;;		wreg, status,2, status,0, pclath, cstack
  1587 ;; Tracked objects:
  1588 ;;		On entry : 0/0
  1589 ;;		On exit  : 0/0
  1590 ;;		Unchanged: 0/0
  1591 ;; Data sizes:     COMMON   BANK0   BANK1   BANK2   BANK3   BANK4
  1592 ;;      Params:         1       0       0       0       0       0
  1593 ;;      Locals:         3       0       0       0       0       0
  1594 ;;      Temps:          2       0       0       0       0       0
  1595 ;;      Totals:         6       0       0       0       0       0
  1596 ;;Total ram usage:        6 bytes
  1597 ;; Hardware stack levels used: 1
  1598 ;; Hardware stack levels required when called: 3
  1599 ;; This function calls:
  1600 ;;		_lcd_cmd
  1601 ;; This function is called by:
  1602 ;;		_lcd_set_cursor
  1603 ;;		_lcd_print
  1604 ;; This function uses a non-reentrant model
  1605 ;;
  1606                           
  1607                           
  1608                           ;psect for function _command
  1609  068D                     _command:
  1610                           
  1611                           ;incstack = 0
  1612                           ; Regs used in _command: [wreg+status,2+status,0+pclath+cstack]
  1613                           ;command@val stored from wreg
  1614  068D  00F5               	movwf	command@val
  1615  068E                     l1017:
  1616                           
  1617                           ;lcd_lib.c: 145:     uint8_t highnib = (val & 0xf0) | _backlightval | mode;
  1618  068E  0875               	movf	command@val,w
  1619  068F  39F0               	andlw	240
  1620  0690  0020               	movlb	0	; select bank0
  1621  0691  042A               	iorwf	__backlightval,w
  1622  0692  0472               	iorwf	command@mode,w
  1623  0693  00F3               	movwf	??_command
  1624  0694  0873               	movf	??_command,w
  1625  0695  00F6               	movwf	command@highnib
  1626                           
  1627                           ;lcd_lib.c: 146:  uint8_t lownib = ((val << 4) & 0xf0) | _backlightval | mode;
  1628  0696  0875               	movf	command@val,w
  1629  0697  00F3               	movwf	??_command
  1630  0698  3003               	movlw	3
  1631  0699                     u205:
  1632  0699  35F3               	lslf	??_command,f
  1633  069A  3EFF               	addlw	-1
  1634  069B  1D03               	skipz
  1635  069C  2E99               	goto	u205
  1636  069D  3573               	lslf	??_command,w
  1637  069E  39F0               	andlw	240
  1638  069F  042A               	iorwf	__backlightval,w
  1639  06A0  0472               	iorwf	command@mode,w
  1640  06A1  00F4               	movwf	??_command+1
  1641  06A2  0874               	movf	??_command+1,w
  1642  06A3  00F7               	movwf	command@lownib
  1643  06A4                     l1019:
  1644                           
  1645                           ;lcd_lib.c: 148:  lcd_cmd(highnib);
  1646  06A4  0876               	movf	command@highnib,w
  1647  06A5  3186  263A  3186   	fcall	_lcd_cmd
  1648  06A8                     l1021:
  1649                           
  1650                           ;lcd_lib.c: 149:     lcd_cmd(highnib | 0b00000100);
  1651  06A8  0876               	movf	command@highnib,w
  1652  06A9  3804               	iorlw	4
  1653  06AA  3186  263A  3186   	fcall	_lcd_cmd
  1654  06AD                     l1023:
  1655                           
  1656                           ;lcd_lib.c: 150:     lcd_cmd(highnib & ~0b00000100);
  1657  06AD  0876               	movf	command@highnib,w
  1658  06AE  39FB               	andlw	251
  1659  06AF  3186  263A  3186   	fcall	_lcd_cmd
  1660  06B2                     l1025:
  1661                           
  1662                           ;lcd_lib.c: 152:     _delay((unsigned long)((100)*(8000000/4000000.0)));
  1663  06B2  3042               	movlw	66
  1664  06B3                     u287:
  1665  06B3  0B89               	decfsz	9,f
  1666  06B4  2EB3               	goto	u287
  1667  06B5  3200               	nop2
  1668  06B6                     l1027:
  1669                           
  1670                           ;lcd_lib.c: 154:  lcd_cmd(lownib);
  1671  06B6  0877               	movf	command@lownib,w
  1672  06B7  3186  263A  3186   	fcall	_lcd_cmd
  1673  06BA                     l1029:
  1674                           
  1675                           ;lcd_lib.c: 155:     lcd_cmd(lownib | 0b00000100);
  1676  06BA  0877               	movf	command@lownib,w
  1677  06BB  3804               	iorlw	4
  1678  06BC  3186  263A  3186   	fcall	_lcd_cmd
  1679  06BF                     l1031:
  1680                           
  1681                           ;lcd_lib.c: 156:     lcd_cmd(lownib & ~0b00000100);
  1682  06BF  0877               	movf	command@lownib,w
  1683  06C0  39FB               	andlw	251
  1684  06C1  3186  263A  3186   	fcall	_lcd_cmd
  1685  06C4                     l173:
  1686  06C4  0008               	return
  1687  06C5                     __end_of_command:
  1688                           
  1689                           	psect	text4
  1690  0700                     __ptext4:	
  1691 ;; *************** function _lcd_init *****************
  1692 ;; Defined at:
  1693 ;;		line 27 in file "lcd_lib.c"
  1694 ;; Parameters:    Size  Location     Type
  1695 ;;		None
  1696 ;; Auto vars:     Size  Location     Type
  1697 ;;		None
  1698 ;; Return value:  Size  Location     Type
  1699 ;;                  1    wreg      void 
  1700 ;; Registers used:
  1701 ;;		wreg, status,2, status,0, pclath, cstack
  1702 ;; Tracked objects:
  1703 ;;		On entry : 0/0
  1704 ;;		On exit  : 0/0
  1705 ;;		Unchanged: 0/0
  1706 ;; Data sizes:     COMMON   BANK0   BANK1   BANK2   BANK3   BANK4
  1707 ;;      Params:         0       0       0       0       0       0
  1708 ;;      Locals:         0       0       0       0       0       0
  1709 ;;      Temps:          2       0       0       0       0       0
  1710 ;;      Totals:         2       0       0       0       0       0
  1711 ;;Total ram usage:        2 bytes
  1712 ;; Hardware stack levels used: 1
  1713 ;; Hardware stack levels required when called: 3
  1714 ;; This function calls:
  1715 ;;		_lcd_cmd
  1716 ;; This function is called by:
  1717 ;;		_main
  1718 ;; This function uses a non-reentrant model
  1719 ;;
  1720                           
  1721                           
  1722                           ;psect for function _lcd_init
  1723  0700                     _lcd_init:
  1724  0700                     l1033:	
  1725                           ;incstack = 0
  1726                           ; Regs used in _lcd_init: [wreg+status,2+status,0+pclath+cstack]
  1727                           
  1728                           
  1729                           ;lcd_lib.c: 28:     _delay((unsigned long)((400)*(8000000/4000.0)));
  1730  0700  3005               	movlw	5
  1731  0701  00F3               	movwf	??_lcd_init+1
  1732  0702  300F               	movlw	15
  1733  0703  00F2               	movwf	??_lcd_init
  1734  0704  30F1               	movlw	241
  1735  0705                     u297:
  1736  0705  0B89               	decfsz	9,f
  1737  0706  2F05               	goto	u297
  1738  0707  0BF2               	decfsz	??_lcd_init,f
  1739  0708  2F05               	goto	u297
  1740  0709  0BF3               	decfsz	??_lcd_init+1,f
  1741  070A  2F05               	goto	u297
  1742  070B  0000               	nop
  1743  070C                     l1035:
  1744                           
  1745                           ;lcd_lib.c: 30:     lcd_cmd(0x30);
  1746  070C  3030               	movlw	48
  1747  070D  3186  263A  3187   	fcall	_lcd_cmd
  1748  0710                     l1037:
  1749                           
  1750                           ;lcd_lib.c: 31:     lcd_cmd(0x34);
  1751  0710  3034               	movlw	52
  1752  0711  3186  263A  3187   	fcall	_lcd_cmd
  1753  0714                     l1039:
  1754                           
  1755                           ;lcd_lib.c: 32:     lcd_cmd(0x30);
  1756  0714  3030               	movlw	48
  1757  0715  3186  263A  3187   	fcall	_lcd_cmd
  1758  0718                     l1041:
  1759                           
  1760                           ;lcd_lib.c: 33:     _delay((unsigned long)((5)*(8000000/4000.0)));
  1761  0718  300D               	movlw	13
  1762  0719  00F2               	movwf	??_lcd_init
  1763  071A  30FC               	movlw	252
  1764  071B                     u307:
  1765  071B  0B89               	decfsz	9,f
  1766  071C  2F1B               	goto	u307
  1767  071D  0BF2               	decfsz	??_lcd_init,f
  1768  071E  2F1B               	goto	u307
  1769                           
  1770                           ;lcd_lib.c: 35:     lcd_cmd(0x30);
  1771  071F  3030               	movlw	48
  1772  0720  3186  263A  3187   	fcall	_lcd_cmd
  1773                           
  1774                           ;lcd_lib.c: 36:     lcd_cmd(0x34);
  1775  0723  3034               	movlw	52
  1776  0724  3186  263A  3187   	fcall	_lcd_cmd
  1777                           
  1778                           ;lcd_lib.c: 37:     lcd_cmd(0x30);
  1779  0727  3030               	movlw	48
  1780  0728  3186  263A  3187   	fcall	_lcd_cmd
  1781  072B                     l1043:
  1782                           
  1783                           ;lcd_lib.c: 38:     _delay((unsigned long)((5)*(8000000/4000.0)));
  1784  072B  300D               	movlw	13
  1785  072C  00F2               	movwf	??_lcd_init
  1786  072D  30FC               	movlw	252
  1787  072E                     u317:
  1788  072E  0B89               	decfsz	9,f
  1789  072F  2F2E               	goto	u317
  1790  0730  0BF2               	decfsz	??_lcd_init,f
  1791  0731  2F2E               	goto	u317
  1792  0732                     l1045:
  1793                           
  1794                           ;lcd_lib.c: 40:     lcd_cmd(0x30);
  1795  0732  3030               	movlw	48
  1796  0733  3186  263A  3187   	fcall	_lcd_cmd
  1797  0736                     l1047:
  1798                           
  1799                           ;lcd_lib.c: 41:     lcd_cmd(0x34);
  1800  0736  3034               	movlw	52
  1801  0737  3186  263A  3187   	fcall	_lcd_cmd
  1802  073A                     l1049:
  1803                           
  1804                           ;lcd_lib.c: 42:     lcd_cmd(0x30);
  1805  073A  3030               	movlw	48
  1806  073B  3186  263A  3187   	fcall	_lcd_cmd
  1807                           
  1808                           ;lcd_lib.c: 43:     _delay((unsigned long)((300)*(8000000/4000000.0)));
  1809  073E  30C8               	movlw	200
  1810  073F                     u327:
  1811  073F  0B89               	decfsz	9,f
  1812  0740  2F3F               	goto	u327
  1813  0741                     l1051:
  1814                           
  1815                           ;lcd_lib.c: 45:     lcd_cmd(0x20);
  1816  0741  3020               	movlw	32
  1817  0742  3186  263A  3187   	fcall	_lcd_cmd
  1818  0745                     l1053:
  1819                           
  1820                           ;lcd_lib.c: 46:     lcd_cmd(0x24);
  1821  0745  3024               	movlw	36
  1822  0746  3186  263A  3187   	fcall	_lcd_cmd
  1823  0749                     l1055:
  1824                           
  1825                           ;lcd_lib.c: 47:     lcd_cmd(0x20);
  1826  0749  3020               	movlw	32
  1827  074A  3186  263A  3187   	fcall	_lcd_cmd
  1828  074D                     l1057:
  1829                           
  1830                           ;lcd_lib.c: 48:     _delay((unsigned long)((10)*(8000000/4000000.0)));
  1831  074D  3006               	movlw	6
  1832  074E                     u337:
  1833  074E  0B89               	decfsz	9,f
  1834  074F  2F4E               	goto	u337
  1835  0750  3200               	nop2
  1836                           
  1837                           ;lcd_lib.c: 51:     lcd_cmd(0x20);
  1838  0751  3020               	movlw	32
  1839  0752  3186  263A  3187   	fcall	_lcd_cmd
  1840                           
  1841                           ;lcd_lib.c: 52:     lcd_cmd(0x24);
  1842  0755  3024               	movlw	36
  1843  0756  3186  263A  3187   	fcall	_lcd_cmd
  1844                           
  1845                           ;lcd_lib.c: 53:     lcd_cmd(0x20);
  1846  0759  3020               	movlw	32
  1847  075A  3186  263A  3187   	fcall	_lcd_cmd
  1848  075D                     l1059:
  1849                           
  1850                           ;lcd_lib.c: 55:     _delay((unsigned long)((100)*(8000000/4000000.0)));
  1851  075D  3042               	movlw	66
  1852  075E                     u347:
  1853  075E  0B89               	decfsz	9,f
  1854  075F  2F5E               	goto	u347
  1855  0760  3200               	nop2
  1856  0761                     l1061:
  1857                           
  1858                           ;lcd_lib.c: 57:     lcd_cmd(0x80);
  1859  0761  3080               	movlw	128
  1860  0762  3186  263A  3187   	fcall	_lcd_cmd
  1861  0765                     l1063:
  1862                           
  1863                           ;lcd_lib.c: 58:     lcd_cmd(0x84);
  1864  0765  3084               	movlw	132
  1865  0766  3186  263A  3187   	fcall	_lcd_cmd
  1866  0769                     l1065:
  1867                           
  1868                           ;lcd_lib.c: 59:     lcd_cmd(0x80);
  1869  0769  3080               	movlw	128
  1870  076A  3186  263A  3187   	fcall	_lcd_cmd
  1871  076D                     l1067:
  1872                           
  1873                           ;lcd_lib.c: 63:     lcd_cmd(0x00);
  1874  076D  3000               	movlw	0
  1875  076E  3186  263A  3187   	fcall	_lcd_cmd
  1876  0771                     l1069:
  1877                           
  1878                           ;lcd_lib.c: 64:     lcd_cmd(0x04);
  1879  0771  3004               	movlw	4
  1880  0772  3186  263A  3187   	fcall	_lcd_cmd
  1881  0775                     l1071:
  1882                           
  1883                           ;lcd_lib.c: 65:     lcd_cmd(0x00);
  1884  0775  3000               	movlw	0
  1885  0776  3186  263A  3187   	fcall	_lcd_cmd
  1886  0779                     l1073:
  1887                           
  1888                           ;lcd_lib.c: 67:     _delay((unsigned long)((100)*(8000000/4000000.0)));
  1889  0779  3042               	movlw	66
  1890  077A                     u357:
  1891  077A  0B89               	decfsz	9,f
  1892  077B  2F7A               	goto	u357
  1893  077C  3200               	nop2
  1894                           
  1895                           ;lcd_lib.c: 69:     lcd_cmd(0xC0);
  1896  077D  30C0               	movlw	192
  1897  077E  3186  263A  3187   	fcall	_lcd_cmd
  1898                           
  1899                           ;lcd_lib.c: 70:     lcd_cmd(0xC4);
  1900  0781  30C4               	movlw	196
  1901  0782  3186  263A  3187   	fcall	_lcd_cmd
  1902                           
  1903                           ;lcd_lib.c: 71:     lcd_cmd(0xC0);
  1904  0785  30C0               	movlw	192
  1905  0786  3186  263A  3187   	fcall	_lcd_cmd
  1906                           
  1907                           ;lcd_lib.c: 75:     lcd_cmd(0x00);
  1908  0789  3000               	movlw	0
  1909  078A  3186  263A  3187   	fcall	_lcd_cmd
  1910                           
  1911                           ;lcd_lib.c: 76:     lcd_cmd(0x04);
  1912  078D  3004               	movlw	4
  1913  078E  3186  263A  3187   	fcall	_lcd_cmd
  1914                           
  1915                           ;lcd_lib.c: 77:     lcd_cmd(0x00);
  1916  0791  3000               	movlw	0
  1917  0792  3186  263A  3187   	fcall	_lcd_cmd
  1918  0795                     l1075:
  1919                           
  1920                           ;lcd_lib.c: 79:     _delay((unsigned long)((100)*(8000000/4000000.0)));
  1921  0795  3042               	movlw	66
  1922  0796                     u367:
  1923  0796  0B89               	decfsz	9,f
  1924  0797  2F96               	goto	u367
  1925  0798  3200               	nop2
  1926  0799                     l1077:
  1927                           
  1928                           ;lcd_lib.c: 81:     lcd_cmd(0x10);
  1929  0799  3010               	movlw	16
  1930  079A  3186  263A  3187   	fcall	_lcd_cmd
  1931  079D                     l1079:
  1932                           
  1933                           ;lcd_lib.c: 82:     lcd_cmd(0x14);
  1934  079D  3014               	movlw	20
  1935  079E  3186  263A  3187   	fcall	_lcd_cmd
  1936  07A1                     l1081:
  1937                           
  1938                           ;lcd_lib.c: 83:     lcd_cmd(0x10);
  1939  07A1  3010               	movlw	16
  1940  07A2  3186  263A  3187   	fcall	_lcd_cmd
  1941                           
  1942                           ;lcd_lib.c: 85:     _delay((unsigned long)((5)*(8000000/4000.0)));
  1943  07A5  300D               	movlw	13
  1944  07A6  00F2               	movwf	??_lcd_init
  1945  07A7  30FC               	movlw	252
  1946  07A8                     u377:
  1947  07A8  0B89               	decfsz	9,f
  1948  07A9  2FA8               	goto	u377
  1949  07AA  0BF2               	decfsz	??_lcd_init,f
  1950  07AB  2FA8               	goto	u377
  1951  07AC                     l1083:
  1952                           
  1953                           ;lcd_lib.c: 88:     lcd_cmd(0x00);
  1954  07AC  3000               	movlw	0
  1955  07AD  3186  263A  3187   	fcall	_lcd_cmd
  1956  07B0                     l1085:
  1957                           
  1958                           ;lcd_lib.c: 89:     lcd_cmd(0x04);
  1959  07B0  3004               	movlw	4
  1960  07B1  3186  263A  3187   	fcall	_lcd_cmd
  1961  07B4                     l1087:
  1962                           
  1963                           ;lcd_lib.c: 90:     lcd_cmd(0x00);
  1964  07B4  3000               	movlw	0
  1965  07B5  3186  263A  3187   	fcall	_lcd_cmd
  1966  07B8                     l1089:
  1967                           
  1968                           ;lcd_lib.c: 92:     _delay((unsigned long)((100)*(8000000/4000000.0)));
  1969  07B8  3042               	movlw	66
  1970  07B9                     u387:
  1971  07B9  0B89               	decfsz	9,f
  1972  07BA  2FB9               	goto	u387
  1973  07BB  3200               	nop2
  1974                           
  1975                           ;lcd_lib.c: 94:     lcd_cmd(0x60);
  1976  07BC  3060               	movlw	96
  1977  07BD  3186  263A  3187   	fcall	_lcd_cmd
  1978                           
  1979                           ;lcd_lib.c: 95:     lcd_cmd(0x64);
  1980  07C0  3064               	movlw	100
  1981  07C1  3186  263A  3187   	fcall	_lcd_cmd
  1982                           
  1983                           ;lcd_lib.c: 96:     lcd_cmd(0x60);
  1984  07C4  3060               	movlw	96
  1985  07C5  3186  263A  3187   	fcall	_lcd_cmd
  1986                           
  1987                           ;lcd_lib.c: 100:     lcd_cmd(0x00);
  1988  07C8  3000               	movlw	0
  1989  07C9  3186  263A  3187   	fcall	_lcd_cmd
  1990                           
  1991                           ;lcd_lib.c: 101:     lcd_cmd(0x04);
  1992  07CC  3004               	movlw	4
  1993  07CD  3186  263A  3187   	fcall	_lcd_cmd
  1994                           
  1995                           ;lcd_lib.c: 102:     lcd_cmd(0x00);
  1996  07D0  3000               	movlw	0
  1997  07D1  3186  263A  3187   	fcall	_lcd_cmd
  1998  07D4                     l1091:
  1999                           
  2000                           ;lcd_lib.c: 104:     _delay((unsigned long)((100)*(8000000/4000000.0)));
  2001  07D4  3042               	movlw	66
  2002  07D5                     u397:
  2003  07D5  0B89               	decfsz	9,f
  2004  07D6  2FD5               	goto	u397
  2005  07D7  3200               	nop2
  2006  07D8                     l1093:
  2007                           
  2008                           ;lcd_lib.c: 106:     lcd_cmd(0x20);
  2009  07D8  3020               	movlw	32
  2010  07D9  3186  263A  3187   	fcall	_lcd_cmd
  2011  07DC                     l1095:
  2012                           
  2013                           ;lcd_lib.c: 107:     lcd_cmd(0x24);
  2014  07DC  3024               	movlw	36
  2015  07DD  3186  263A  3187   	fcall	_lcd_cmd
  2016  07E0                     l1097:
  2017                           
  2018                           ;lcd_lib.c: 108:     lcd_cmd(0x20);
  2019  07E0  3020               	movlw	32
  2020  07E1  3186  263A  3187   	fcall	_lcd_cmd
  2021                           
  2022                           ;lcd_lib.c: 110:     _delay((unsigned long)((3)*(8000000/4000.0)));
  2023  07E4  3008               	movlw	8
  2024  07E5  00F2               	movwf	??_lcd_init
  2025  07E6  30CA               	movlw	202
  2026  07E7                     u407:
  2027  07E7  0B89               	decfsz	9,f
  2028  07E8  2FE7               	goto	u407
  2029  07E9  0BF2               	decfsz	??_lcd_init,f
  2030  07EA  2FE7               	goto	u407
  2031  07EB                     l148:
  2032  07EB  0008               	return
  2033  07EC                     __end_of_lcd_init:
  2034                           
  2035                           	psect	text5
  2036  060D                     __ptext5:	
  2037 ;; *************** function _lcd_backlight *****************
  2038 ;; Defined at:
  2039 ;;		line 113 in file "lcd_lib.c"
  2040 ;; Parameters:    Size  Location     Type
  2041 ;;		None
  2042 ;; Auto vars:     Size  Location     Type
  2043 ;;		None
  2044 ;; Return value:  Size  Location     Type
  2045 ;;                  1    wreg      void 
  2046 ;; Registers used:
  2047 ;;		wreg, status,2, status,0, pclath, cstack
  2048 ;; Tracked objects:
  2049 ;;		On entry : 0/0
  2050 ;;		On exit  : 0/0
  2051 ;;		Unchanged: 0/0
  2052 ;; Data sizes:     COMMON   BANK0   BANK1   BANK2   BANK3   BANK4
  2053 ;;      Params:         0       0       0       0       0       0
  2054 ;;      Locals:         0       0       0       0       0       0
  2055 ;;      Temps:          1       0       0       0       0       0
  2056 ;;      Totals:         1       0       0       0       0       0
  2057 ;;Total ram usage:        1 bytes
  2058 ;; Hardware stack levels used: 1
  2059 ;; Hardware stack levels required when called: 3
  2060 ;; This function calls:
  2061 ;;		_lcd_cmd
  2062 ;; This function is called by:
  2063 ;;		_main
  2064 ;; This function uses a non-reentrant model
  2065 ;;
  2066                           
  2067                           
  2068                           ;psect for function _lcd_backlight
  2069  060D                     _lcd_backlight:
  2070  060D                     l1099:	
  2071                           ;incstack = 0
  2072                           ; Regs used in _lcd_backlight: [wreg+status,2+status,0+pclath+cstack]
  2073                           
  2074                           
  2075                           ;lcd_lib.c: 114:     lcd_cmd(0x08);
  2076  060D  3008               	movlw	8
  2077  060E  3186  263A  3186   	fcall	_lcd_cmd
  2078  0611                     l1101:
  2079                           
  2080                           ;lcd_lib.c: 115:     _backlightval = 0x08;
  2081  0611  3008               	movlw	8
  2082  0612  00F2               	movwf	??_lcd_backlight
  2083  0613  0872               	movf	??_lcd_backlight,w
  2084  0614  0020               	movlb	0	; select bank0
  2085  0615  00AA               	movwf	__backlightval
  2086  0616                     l1103:
  2087                           
  2088                           ;lcd_lib.c: 116:     _delay((unsigned long)((10)*(8000000/4000000.0)));
  2089  0616  3006               	movlw	6
  2090  0617                     u417:
  2091  0617  0B89               	decfsz	9,f
  2092  0618  2E17               	goto	u417
  2093  0619  3200               	nop2
  2094  061A                     l151:
  2095  061A  0008               	return
  2096  061B                     __end_of_lcd_backlight:
  2097                           
  2098                           	psect	text6
  2099  063A                     __ptext6:	
  2100 ;; *************** function _lcd_cmd *****************
  2101 ;; Defined at:
  2102 ;;		line 19 in file "lcd_lib.c"
  2103 ;; Parameters:    Size  Location     Type
  2104 ;;  cmd             1    wreg     unsigned char 
  2105 ;; Auto vars:     Size  Location     Type
  2106 ;;  cmd             1    1[COMMON] unsigned char 
  2107 ;; Return value:  Size  Location     Type
  2108 ;;                  1    wreg      void 
  2109 ;; Registers used:
  2110 ;;		wreg, status,2, status,0, pclath, cstack
  2111 ;; Tracked objects:
  2112 ;;		On entry : 0/0
  2113 ;;		On exit  : 0/0
  2114 ;;		Unchanged: 0/0
  2115 ;; Data sizes:     COMMON   BANK0   BANK1   BANK2   BANK3   BANK4
  2116 ;;      Params:         0       0       0       0       0       0
  2117 ;;      Locals:         1       0       0       0       0       0
  2118 ;;      Temps:          0       0       0       0       0       0
  2119 ;;      Totals:         1       0       0       0       0       0
  2120 ;;Total ram usage:        1 bytes
  2121 ;; Hardware stack levels used: 1
  2122 ;; Hardware stack levels required when called: 2
  2123 ;; This function calls:
  2124 ;;		_i2c_start
  2125 ;;		_i2c_stop
  2126 ;;		_i2c_write
  2127 ;; This function is called by:
  2128 ;;		_lcd_init
  2129 ;;		_lcd_backlight
  2130 ;;		_command
  2131 ;; This function uses a non-reentrant model
  2132 ;;
  2133                           
  2134                           
  2135                           ;psect for function _lcd_cmd
  2136  063A                     _lcd_cmd:
  2137                           
  2138                           ;incstack = 0
  2139                           ; Regs used in _lcd_cmd: [wreg+status,2+status,0+pclath+cstack]
  2140                           ;lcd_cmd@cmd stored from wreg
  2141  063A  00F1               	movwf	lcd_cmd@cmd
  2142  063B                     l1013:
  2143                           
  2144                           ;lcd_lib.c: 20:     i2c_start();
  2145  063B  3185  25F7  3186   	fcall	_i2c_start
  2146                           
  2147                           ;lcd_lib.c: 21:     i2c_write(0x3F << 1);
  2148  063E  307E               	movlw	126
  2149  063F  3186  262A  3186   	fcall	_i2c_write
  2150                           
  2151                           ;lcd_lib.c: 22:     i2c_write(cmd);
  2152  0642  0871               	movf	lcd_cmd@cmd,w
  2153  0643  3186  262A  3186   	fcall	_i2c_write
  2154  0646                     l1015:
  2155                           
  2156                           ;lcd_lib.c: 23:     i2c_stop();
  2157  0646  3185  25E6  3186   	fcall	_i2c_stop
  2158                           
  2159                           ;lcd_lib.c: 24:     _delay((unsigned long)((10)*(8000000/4000000.0)));
  2160  0649  3006               	movlw	6
  2161  064A                     u427:
  2162  064A  0B89               	decfsz	9,f
  2163  064B  2E4A               	goto	u427
  2164  064C  3200               	nop2
  2165  064D                     l145:
  2166  064D  0008               	return
  2167  064E                     __end_of_lcd_cmd:
  2168                           
  2169                           	psect	text7
  2170  062A                     __ptext7:	
  2171 ;; *************** function _i2c_write *****************
  2172 ;; Defined at:
  2173 ;;		line 26 in file "i2c.c"
  2174 ;; Parameters:    Size  Location     Type
  2175 ;;  data            1    wreg     unsigned char 
  2176 ;; Auto vars:     Size  Location     Type
  2177 ;;  data            1    0[COMMON] unsigned char 
  2178 ;; Return value:  Size  Location     Type
  2179 ;;                  1    wreg      void 
  2180 ;; Registers used:
  2181 ;;		wreg, status,2, status,0, pclath, cstack
  2182 ;; Tracked objects:
  2183 ;;		On entry : 0/0
  2184 ;;		On exit  : 0/0
  2185 ;;		Unchanged: 0/0
  2186 ;; Data sizes:     COMMON   BANK0   BANK1   BANK2   BANK3   BANK4
  2187 ;;      Params:         0       0       0       0       0       0
  2188 ;;      Locals:         1       0       0       0       0       0
  2189 ;;      Temps:          0       0       0       0       0       0
  2190 ;;      Totals:         1       0       0       0       0       0
  2191 ;;Total ram usage:        1 bytes
  2192 ;; Hardware stack levels used: 1
  2193 ;; Hardware stack levels required when called: 1
  2194 ;; This function calls:
  2195 ;;		_i2c_wait
  2196 ;; This function is called by:
  2197 ;;		_lcd_cmd
  2198 ;; This function uses a non-reentrant model
  2199 ;;
  2200                           
  2201                           
  2202                           ;psect for function _i2c_write
  2203  062A                     _i2c_write:
  2204                           
  2205                           ;incstack = 0
  2206                           ; Regs used in _i2c_write: [wreg+status,2+status,0+pclath+cstack]
  2207                           ;i2c_write@data stored from wreg
  2208  062A  00F0               	movwf	i2c_write@data
  2209  062B                     l1009:
  2210                           
  2211                           ;i2c.c: 27:     SSP2BUF = data;
  2212  062B  0870               	movf	i2c_write@data,w
  2213  062C  0024               	movlb	4	; select bank4
  2214  062D  0099               	movwf	25	;volatile
  2215  062E                     l114:	
  2216                           ;i2c.c: 28:     while(SSP2STATbits.BF);
  2217                           
  2218  062E  181C               	btfsc	28,0	;volatile
  2219  062F  2E31               	goto	u181
  2220  0630  2E32               	goto	u180
  2221  0631                     u181:
  2222  0631  2E2E               	goto	l114
  2223  0632                     u180:
  2224  0632                     l117:
  2225  0632  1B1E               	btfsc	30,6	;volatile
  2226  0633  2E35               	goto	u191
  2227  0634  2E36               	goto	u190
  2228  0635                     u191:
  2229  0635  2E32               	goto	l117
  2230  0636                     u190:
  2231  0636                     l1011:
  2232                           
  2233                           ;i2c.c: 30:     i2c_wait();
  2234  0636  3186  2601  3186   	fcall	_i2c_wait
  2235  0639                     l120:
  2236  0639  0008               	return
  2237  063A                     __end_of_i2c_write:
  2238                           
  2239                           	psect	text8
  2240  05E6                     __ptext8:	
  2241 ;; *************** function _i2c_stop *****************
  2242 ;; Defined at:
  2243 ;;		line 15 in file "i2c.c"
  2244 ;; Parameters:    Size  Location     Type
  2245 ;;		None
  2246 ;; Auto vars:     Size  Location     Type
  2247 ;;		None
  2248 ;; Return value:  Size  Location     Type
  2249 ;;                  1    wreg      void 
  2250 ;; Registers used:
  2251 ;;		None
  2252 ;; Tracked objects:
  2253 ;;		On entry : 0/0
  2254 ;;		On exit  : 0/0
  2255 ;;		Unchanged: 0/0
  2256 ;; Data sizes:     COMMON   BANK0   BANK1   BANK2   BANK3   BANK4
  2257 ;;      Params:         0       0       0       0       0       0
  2258 ;;      Locals:         0       0       0       0       0       0
  2259 ;;      Temps:          0       0       0       0       0       0
  2260 ;;      Totals:         0       0       0       0       0       0
  2261 ;;Total ram usage:        0 bytes
  2262 ;; Hardware stack levels used: 1
  2263 ;; This function calls:
  2264 ;;		Nothing
  2265 ;; This function is called by:
  2266 ;;		_lcd_cmd
  2267 ;; This function uses a non-reentrant model
  2268 ;;
  2269                           
  2270                           
  2271                           ;psect for function _i2c_stop
  2272  05E6                     _i2c_stop:
  2273  05E6                     l1007:	
  2274                           ;incstack = 0
  2275                           ; Regs used in _i2c_stop: []
  2276                           
  2277                           
  2278                           ;i2c.c: 16:     SSP2CON2bits.PEN = 1;
  2279  05E6  0024               	movlb	4	; select bank4
  2280  05E7  151E               	bsf	30,2	;volatile
  2281  05E8                     l102:	
  2282                           ;i2c.c: 17:     while(SSP2CON2bits.PEN);
  2283                           
  2284  05E8  191E               	btfsc	30,2	;volatile
  2285  05E9  2DEB               	goto	u171
  2286  05EA  2DEC               	goto	u170
  2287  05EB                     u171:
  2288  05EB  2DE8               	goto	l102
  2289  05EC                     u170:
  2290  05EC                     l105:
  2291  05EC  0008               	return
  2292  05ED                     __end_of_i2c_stop:
  2293                           
  2294                           	psect	text9
  2295  05F7                     __ptext9:	
  2296 ;; *************** function _i2c_start *****************
  2297 ;; Defined at:
  2298 ;;		line 9 in file "i2c.c"
  2299 ;; Parameters:    Size  Location     Type
  2300 ;;		None
  2301 ;; Auto vars:     Size  Location     Type
  2302 ;;		None
  2303 ;; Return value:  Size  Location     Type
  2304 ;;                  1    wreg      void 
  2305 ;; Registers used:
  2306 ;;		wreg, status,2, status,0, pclath, cstack
  2307 ;; Tracked objects:
  2308 ;;		On entry : 0/0
  2309 ;;		On exit  : 0/0
  2310 ;;		Unchanged: 0/0
  2311 ;; Data sizes:     COMMON   BANK0   BANK1   BANK2   BANK3   BANK4
  2312 ;;      Params:         0       0       0       0       0       0
  2313 ;;      Locals:         0       0       0       0       0       0
  2314 ;;      Temps:          0       0       0       0       0       0
  2315 ;;      Totals:         0       0       0       0       0       0
  2316 ;;Total ram usage:        0 bytes
  2317 ;; Hardware stack levels used: 1
  2318 ;; Hardware stack levels required when called: 1
  2319 ;; This function calls:
  2320 ;;		_i2c_wait
  2321 ;; This function is called by:
  2322 ;;		_lcd_cmd
  2323 ;; This function uses a non-reentrant model
  2324 ;;
  2325                           
  2326                           
  2327                           ;psect for function _i2c_start
  2328  05F7                     _i2c_start:
  2329  05F7                     l1003:	
  2330                           ;incstack = 0
  2331                           ; Regs used in _i2c_start: [wreg+status,2+status,0+pclath+cstack]
  2332                           
  2333                           
  2334                           ;i2c.c: 10:     i2c_wait();
  2335  05F7  3186  2601  3185   	fcall	_i2c_wait
  2336  05FA                     l1005:
  2337                           
  2338                           ;i2c.c: 11:     SSP2CON2bits.SEN = 1;
  2339  05FA  0024               	movlb	4	; select bank4
  2340  05FB  141E               	bsf	30,0	;volatile
  2341  05FC                     l96:	
  2342                           ;i2c.c: 12:     while(SSP2CON2bits.SEN);
  2343                           
  2344  05FC  181E               	btfsc	30,0	;volatile
  2345  05FD  2DFF               	goto	u161
  2346  05FE  2E00               	goto	u160
  2347  05FF                     u161:
  2348  05FF  2DFC               	goto	l96
  2349  0600                     u160:
  2350  0600                     l99:
  2351  0600  0008               	return
  2352  0601                     __end_of_i2c_start:
  2353                           
  2354                           	psect	text10
  2355  0601                     __ptext10:	
  2356 ;; *************** function _i2c_wait *****************
  2357 ;; Defined at:
  2358 ;;		line 5 in file "i2c.c"
  2359 ;; Parameters:    Size  Location     Type
  2360 ;;		None
  2361 ;; Auto vars:     Size  Location     Type
  2362 ;;		None
  2363 ;; Return value:  Size  Location     Type
  2364 ;;                  1    wreg      void 
  2365 ;; Registers used:
  2366 ;;		wreg, status,2
  2367 ;; Tracked objects:
  2368 ;;		On entry : 0/0
  2369 ;;		On exit  : 0/0
  2370 ;;		Unchanged: 0/0
  2371 ;; Data sizes:     COMMON   BANK0   BANK1   BANK2   BANK3   BANK4
  2372 ;;      Params:         0       0       0       0       0       0
  2373 ;;      Locals:         0       0       0       0       0       0
  2374 ;;      Temps:          0       0       0       0       0       0
  2375 ;;      Totals:         0       0       0       0       0       0
  2376 ;;Total ram usage:        0 bytes
  2377 ;; Hardware stack levels used: 1
  2378 ;; This function calls:
  2379 ;;		Nothing
  2380 ;; This function is called by:
  2381 ;;		_i2c_start
  2382 ;;		_i2c_write
  2383 ;;		_i2c_repeated_start
  2384 ;;		_i2c_read
  2385 ;; This function uses a non-reentrant model
  2386 ;;
  2387                           
  2388                           
  2389                           ;psect for function _i2c_wait
  2390  0601                     _i2c_wait:
  2391  0601                     l997:	
  2392                           ;incstack = 0
  2393                           ; Regs used in _i2c_wait: [wreg+status,2]
  2394                           
  2395  0601                     l999:	
  2396                           ;i2c.c: 6:     while((SSP2CON2 & 0x1F) || (SSP2STAT & 0x04));
  2397                           
  2398  0601  0024               	movlb	4	; select bank4
  2399  0602  081E               	movf	30,w	;volatile
  2400  0603  391F               	andlw	31
  2401  0604  1D03               	btfss	3,2
  2402  0605  2E07               	goto	u141
  2403  0606  2E08               	goto	u140
  2404  0607                     u141:
  2405  0607  2E01               	goto	l999
  2406  0608                     u140:
  2407  0608                     l1001:
  2408  0608  191C               	btfsc	28,2	;volatile
  2409  0609  2E0B               	goto	u151
  2410  060A  2E0C               	goto	u150
  2411  060B                     u151:
  2412  060B  2E01               	goto	l999
  2413  060C                     u150:
  2414  060C                     l93:
  2415  060C  0008               	return
  2416  060D                     __end_of_i2c_wait:
  2417                           
  2418                           	psect	text11
  2419  05ED                     __ptext11:	
  2420 ;; *************** function _SYSTEM_Initialize *****************
  2421 ;; Defined at:
  2422 ;;		line 50 in file "mcc_generated_files/mcc.c"
  2423 ;; Parameters:    Size  Location     Type
  2424 ;;		None
  2425 ;; Auto vars:     Size  Location     Type
  2426 ;;		None
  2427 ;; Return value:  Size  Location     Type
  2428 ;;                  1    wreg      void 
  2429 ;; Registers used:
  2430 ;;		wreg, status,2, status,0, pclath, cstack
  2431 ;; Tracked objects:
  2432 ;;		On entry : 0/0
  2433 ;;		On exit  : 0/0
  2434 ;;		Unchanged: 0/0
  2435 ;; Data sizes:     COMMON   BANK0   BANK1   BANK2   BANK3   BANK4
  2436 ;;      Params:         0       0       0       0       0       0
  2437 ;;      Locals:         0       0       0       0       0       0
  2438 ;;      Temps:          0       0       0       0       0       0
  2439 ;;      Totals:         0       0       0       0       0       0
  2440 ;;Total ram usage:        0 bytes
  2441 ;; Hardware stack levels used: 1
  2442 ;; Hardware stack levels required when called: 1
  2443 ;; This function calls:
  2444 ;;		_OSCILLATOR_Initialize
  2445 ;;		_PIN_MANAGER_Initialize
  2446 ;;		_WDT_Initialize
  2447 ;; This function is called by:
  2448 ;;		_main
  2449 ;; This function uses a non-reentrant model
  2450 ;;
  2451                           
  2452                           
  2453                           ;psect for function _SYSTEM_Initialize
  2454  05ED                     _SYSTEM_Initialize:
  2455  05ED                     l837:	
  2456                           ;incstack = 0
  2457                           ; Regs used in _SYSTEM_Initialize: [wreg+status,2+status,0+pclath+cstack]
  2458                           
  2459                           
  2460                           ;mcc_generated_files/mcc.c: 53:     PIN_MANAGER_Initialize();
  2461  05ED  3186  261B  3185   	fcall	_PIN_MANAGER_Initialize
  2462                           
  2463                           ;mcc_generated_files/mcc.c: 54:     OSCILLATOR_Initialize();
  2464  05F0  3185  25DF  3185   	fcall	_OSCILLATOR_Initialize
  2465                           
  2466                           ;mcc_generated_files/mcc.c: 55:     WDT_Initialize();
  2467  05F3  3185  25D7  3185   	fcall	_WDT_Initialize
  2468  05F6                     l37:
  2469  05F6  0008               	return
  2470  05F7                     __end_of_SYSTEM_Initialize:
  2471                           
  2472                           	psect	text12
  2473  05D7                     __ptext12:	
  2474 ;; *************** function _WDT_Initialize *****************
  2475 ;; Defined at:
  2476 ;;		line 68 in file "mcc_generated_files/mcc.c"
  2477 ;; Parameters:    Size  Location     Type
  2478 ;;		None
  2479 ;; Auto vars:     Size  Location     Type
  2480 ;;		None
  2481 ;; Return value:  Size  Location     Type
  2482 ;;                  1    wreg      void 
  2483 ;; Registers used:
  2484 ;;		wreg
  2485 ;; Tracked objects:
  2486 ;;		On entry : 0/0
  2487 ;;		On exit  : 0/0
  2488 ;;		Unchanged: 0/0
  2489 ;; Data sizes:     COMMON   BANK0   BANK1   BANK2   BANK3   BANK4
  2490 ;;      Params:         0       0       0       0       0       0
  2491 ;;      Locals:         0       0       0       0       0       0
  2492 ;;      Temps:          0       0       0       0       0       0
  2493 ;;      Totals:         0       0       0       0       0       0
  2494 ;;Total ram usage:        0 bytes
  2495 ;; Hardware stack levels used: 1
  2496 ;; This function calls:
  2497 ;;		Nothing
  2498 ;; This function is called by:
  2499 ;;		_SYSTEM_Initialize
  2500 ;; This function uses a non-reentrant model
  2501 ;;
  2502                           
  2503                           
  2504                           ;psect for function _WDT_Initialize
  2505  05D7                     _WDT_Initialize:
  2506  05D7                     l819:	
  2507                           ;incstack = 0
  2508                           ; Regs used in _WDT_Initialize: [wreg]
  2509                           
  2510                           
  2511                           ;mcc_generated_files/mcc.c: 71:     WDTCON = 0x16;
  2512  05D7  3016               	movlw	22
  2513  05D8  0021               	movlb	1	; select bank1
  2514  05D9  0097               	movwf	23	;volatile
  2515  05DA                     l43:
  2516  05DA  0008               	return
  2517  05DB                     __end_of_WDT_Initialize:
  2518                           
  2519                           	psect	text13
  2520  061B                     __ptext13:	
  2521 ;; *************** function _PIN_MANAGER_Initialize *****************
  2522 ;; Defined at:
  2523 ;;		line 55 in file "mcc_generated_files/pin_manager.c"
  2524 ;; Parameters:    Size  Location     Type
  2525 ;;		None
  2526 ;; Auto vars:     Size  Location     Type
  2527 ;;		None
  2528 ;; Return value:  Size  Location     Type
  2529 ;;                  1    wreg      void 
  2530 ;; Registers used:
  2531 ;;		wreg, status,2
  2532 ;; Tracked objects:
  2533 ;;		On entry : 0/0
  2534 ;;		On exit  : 0/0
  2535 ;;		Unchanged: 0/0
  2536 ;; Data sizes:     COMMON   BANK0   BANK1   BANK2   BANK3   BANK4
  2537 ;;      Params:         0       0       0       0       0       0
  2538 ;;      Locals:         0       0       0       0       0       0
  2539 ;;      Temps:          0       0       0       0       0       0
  2540 ;;      Totals:         0       0       0       0       0       0
  2541 ;;Total ram usage:        0 bytes
  2542 ;; Hardware stack levels used: 1
  2543 ;; This function calls:
  2544 ;;		Nothing
  2545 ;; This function is called by:
  2546 ;;		_SYSTEM_Initialize
  2547 ;; This function uses a non-reentrant model
  2548 ;;
  2549                           
  2550                           
  2551                           ;psect for function _PIN_MANAGER_Initialize
  2552  061B                     _PIN_MANAGER_Initialize:
  2553  061B                     l801:	
  2554                           ;incstack = 0
  2555                           ; Regs used in _PIN_MANAGER_Initialize: [wreg+status,2]
  2556                           
  2557                           
  2558                           ;mcc_generated_files/pin_manager.c: 60:     LATA = 0x00;
  2559  061B  0022               	movlb	2	; select bank2
  2560  061C  018C               	clrf	12	;volatile
  2561                           
  2562                           ;mcc_generated_files/pin_manager.c: 61:     LATB = 0x00;
  2563  061D  018D               	clrf	13	;volatile
  2564  061E                     l803:
  2565                           
  2566                           ;mcc_generated_files/pin_manager.c: 66:     TRISA = 0xFF;
  2567  061E  30FF               	movlw	255
  2568  061F  0021               	movlb	1	; select bank1
  2569  0620  008C               	movwf	12	;volatile
  2570  0621                     l805:
  2571                           
  2572                           ;mcc_generated_files/pin_manager.c: 72:     ANSELB = 0xFE;
  2573  0621  30FE               	movlw	254
  2574  0622  0023               	movlb	3	; select bank3
  2575  0623  008D               	movwf	13	;volatile
  2576  0624                     l807:
  2577                           
  2578                           ;mcc_generated_files/pin_manager.c: 73:     ANSELA = 0x1F;
  2579  0624  301F               	movlw	31
  2580  0625  008C               	movwf	12	;volatile
  2581  0626                     l809:
  2582                           
  2583                           ;mcc_generated_files/pin_manager.c: 79:     APFCON0 = 0x00;
  2584  0626  0022               	movlb	2	; select bank2
  2585  0627  019D               	clrf	29	;volatile
  2586  0628                     l811:
  2587                           
  2588                           ;mcc_generated_files/pin_manager.c: 80:     APFCON1 = 0x00;
  2589  0628  019E               	clrf	30	;volatile
  2590  0629                     l17:
  2591  0629  0008               	return
  2592  062A                     __end_of_PIN_MANAGER_Initialize:
  2593                           
  2594                           	psect	text14
  2595  05DF                     __ptext14:	
  2596 ;; *************** function _OSCILLATOR_Initialize *****************
  2597 ;; Defined at:
  2598 ;;		line 58 in file "mcc_generated_files/mcc.c"
  2599 ;; Parameters:    Size  Location     Type
  2600 ;;		None
  2601 ;; Auto vars:     Size  Location     Type
  2602 ;;		None
  2603 ;; Return value:  Size  Location     Type
  2604 ;;                  1    wreg      void 
  2605 ;; Registers used:
  2606 ;;		wreg, status,2
  2607 ;; Tracked objects:
  2608 ;;		On entry : 0/0
  2609 ;;		On exit  : 0/0
  2610 ;;		Unchanged: 0/0
  2611 ;; Data sizes:     COMMON   BANK0   BANK1   BANK2   BANK3   BANK4
  2612 ;;      Params:         0       0       0       0       0       0
  2613 ;;      Locals:         0       0       0       0       0       0
  2614 ;;      Temps:          0       0       0       0       0       0
  2615 ;;      Totals:         0       0       0       0       0       0
  2616 ;;Total ram usage:        0 bytes
  2617 ;; Hardware stack levels used: 1
  2618 ;; This function calls:
  2619 ;;		Nothing
  2620 ;; This function is called by:
  2621 ;;		_SYSTEM_Initialize
  2622 ;; This function uses a non-reentrant model
  2623 ;;
  2624                           
  2625                           
  2626                           ;psect for function _OSCILLATOR_Initialize
  2627  05DF                     _OSCILLATOR_Initialize:
  2628  05DF                     l813:	
  2629                           ;incstack = 0
  2630                           ; Regs used in _OSCILLATOR_Initialize: [wreg+status,2]
  2631                           
  2632                           
  2633                           ;mcc_generated_files/mcc.c: 61:     OSCCON = 0x70;
  2634  05DF  3070               	movlw	112
  2635  05E0  0021               	movlb	1	; select bank1
  2636  05E1  0099               	movwf	25	;volatile
  2637  05E2                     l815:
  2638                           
  2639                           ;mcc_generated_files/mcc.c: 63:     OSCTUNE = 0x00;
  2640  05E2  0198               	clrf	24	;volatile
  2641  05E3                     l817:
  2642                           
  2643                           ;mcc_generated_files/mcc.c: 65:     BORCON = 0x00;
  2644  05E3  0022               	movlb	2	; select bank2
  2645  05E4  0196               	clrf	22	;volatile
  2646  05E5                     l40:
  2647  05E5  0008               	return
  2648  05E6                     __end_of_OSCILLATOR_Initialize:
  2649  007E                     btemp	set	126	;btemp
  2650  007E                     wtemp0	set	126
  2651                           
  2652                           	psect	config
  2653                           
  2654                           ;Config register CONFIG1 @ 0x8007
  2655                           ;	Oscillator Selection
  2656                           ;	FOSC = INTOSC, INTOSC oscillator: I/O function on CLKIN pin
  2657                           ;	Watchdog Timer Enable
  2658                           ;	WDTE = OFF, WDT disabled
  2659                           ;	Power-up Timer Enable
  2660                           ;	PWRTE = OFF, PWRT disabled
  2661                           ;	MCLR Pin Function Select
  2662                           ;	MCLRE = ON, MCLR/VPP pin function is MCLR
  2663                           ;	Flash Program Memory Code Protection
  2664                           ;	CP = OFF, Program memory code protection is disabled
  2665                           ;	Data Memory Code Protection
  2666                           ;	CPD = OFF, Data memory code protection is disabled
  2667                           ;	Brown-out Reset Enable
  2668                           ;	BOREN = ON, Brown-out Reset enabled
  2669                           ;	Clock Out Enable
  2670                           ;	CLKOUTEN = OFF, CLKOUT function is disabled. I/O or oscillator function on the CLKOUT 
      +                          pin
  2671                           ;	Internal/External Switchover
  2672                           ;	IESO = ON, Internal/External Switchover mode is enabled
  2673                           ;	Fail-Safe Clock Monitor Enable
  2674                           ;	FCMEN = ON, Fail-Safe Clock Monitor is enabled
  2675  8007                     	org	32775
  2676  8007  3FE4               	dw	16356
  2677                           
  2678                           ;Config register CONFIG2 @ 0x8008
  2679                           ;	Flash Memory Self-Write Protection
  2680                           ;	WRT = OFF, Write protection off
  2681                           ;	PLL Enable
  2682                           ;	PLLEN = OFF, 4x PLL disabled
  2683                           ;	Stack Overflow/Underflow Reset Enable
  2684                           ;	STVREN = ON, Stack Overflow or Underflow will cause a Reset
  2685                           ;	Brown-out Reset Voltage Selection
  2686                           ;	BORV = LO, Brown-out Reset Voltage (Vbor), low trip point selected.
  2687                           ;	Low-Voltage Programming Enable
  2688                           ;	LVP = OFF, High-voltage on MCLR/VPP must be used for programming
  2689  8008                     	org	32776
  2690  8008  1EFF               	dw	7935

Data Sizes:
    Strings     12
    Constant    0
    Data        4
    BSS         1
    Persistent  32
    Stack       0

Auto Spaces:
    Space          Size  Autos    Used
    COMMON           14     14      14
    BANK0            80      6      11
    BANK1            80      0       0
    BANK2            80      0       0
    BANK3            80      0       0
    BANK4            48      0       0

Pointer List with Targets:

    lcd_print@str	PTR unsigned char  size(2) Largest target is 6
		 -> STR_3(CODE[2]), STR_2(CODE[6]), STR_1(CODE[4]), 


Critical Paths under _main in COMMON

    _main->_lcd_print
    _lcd_set_cursor->_command
    _lcd_print->_command
    _command->_lcd_cmd
    _lcd_init->_lcd_cmd
    _lcd_backlight->_lcd_cmd
    _lcd_cmd->_i2c_write

Critical Paths under _main in BANK0

    _main->_lcd_set_cursor

Critical Paths under _main in BANK1

    None.

Critical Paths under _main in BANK2

    None.

Critical Paths under _main in BANK3

    None.

Critical Paths under _main in BANK4

    None.

Call Graph Tables:

 ---------------------------------------------------------------------------------
 (Depth) Function   	        Calls       Base Space   Used Autos Params    Refs
 ---------------------------------------------------------------------------------
 (0) _main                                                 2     2      0    1562
                                             12 COMMON     2     2      0
                  _SYSTEM_Initialize
                      _lcd_backlight
                           _lcd_init
                          _lcd_print
                     _lcd_set_cursor
 ---------------------------------------------------------------------------------
 (1) _lcd_set_cursor                                       8     7      1     760
                                              8 COMMON     2     1      1
                                              0 BANK0      6     6      0
                            _command
 ---------------------------------------------------------------------------------
 (1) _lcd_print                                            4     2      2     714
                                              8 COMMON     4     2      2
                            _command
 ---------------------------------------------------------------------------------
 (2) _command                                              6     5      1     418
                                              2 COMMON     6     5      1
                            _lcd_cmd
 ---------------------------------------------------------------------------------
 (1) _lcd_init                                             2     2      0      44
                                              2 COMMON     2     2      0
                            _lcd_cmd
 ---------------------------------------------------------------------------------
 (1) _lcd_backlight                                        1     1      0      44
                                              2 COMMON     1     1      0
                            _lcd_cmd
 ---------------------------------------------------------------------------------
 (3) _lcd_cmd                                              1     1      0      44
                                              1 COMMON     1     1      0
                          _i2c_start
                           _i2c_stop
                          _i2c_write
 ---------------------------------------------------------------------------------
 (4) _i2c_write                                            1     1      0      22
                                              0 COMMON     1     1      0
                           _i2c_wait
 ---------------------------------------------------------------------------------
 (4) _i2c_stop                                             0     0      0       0
 ---------------------------------------------------------------------------------
 (4) _i2c_start                                            0     0      0       0
                           _i2c_wait
 ---------------------------------------------------------------------------------
 (5) _i2c_wait                                             0     0      0       0
 ---------------------------------------------------------------------------------
 (1) _SYSTEM_Initialize                                    0     0      0       0
              _OSCILLATOR_Initialize
             _PIN_MANAGER_Initialize
                     _WDT_Initialize
 ---------------------------------------------------------------------------------
 (2) _WDT_Initialize                                       0     0      0       0
 ---------------------------------------------------------------------------------
 (2) _PIN_MANAGER_Initialize                               0     0      0       0
 ---------------------------------------------------------------------------------
 (2) _OSCILLATOR_Initialize                                0     0      0       0
 ---------------------------------------------------------------------------------
 Estimated maximum stack depth 5
 ---------------------------------------------------------------------------------

 Call Graph Graphs:

 _main (ROOT)
   _SYSTEM_Initialize
     _OSCILLATOR_Initialize
     _PIN_MANAGER_Initialize
     _WDT_Initialize
   _lcd_backlight
     _lcd_cmd
       _i2c_start
         _i2c_wait
       _i2c_stop
       _i2c_write
         _i2c_wait
   _lcd_init
     _lcd_cmd
   _lcd_print
     _command
       _lcd_cmd
   _lcd_set_cursor
     _command

 Address spaces:
Name               Size   Autos  Total    Cost      Usage
BIGRAM             170      0       0       0        0.0%
EEDATA             100      0       0       0        0.0%
NULL                 0      0       0       0        0.0%
CODE                 0      0       0       0        0.0%
BITCOMMON            E      0       0       1        0.0%
BITSFR0              0      0       0       1        0.0%
SFR0                 0      0       0       1        0.0%
COMMON               E      E       E       2      100.0%
BITSFR1              0      0       0       2        0.0%
SFR1                 0      0       0       2        0.0%
BITSFR2              0      0       0       3        0.0%
SFR2                 0      0       0       3        0.0%
STACK                0      0       0       3        0.0%
BITSFR3              0      0       0       4        0.0%
SFR3                 0      0       0       4        0.0%
ABS                  0      0      19       4        0.0%
BITBANK0            50      0       0       5        0.0%
BITSFR4              0      0       0       5        0.0%
SFR4                 0      0       0       5        0.0%
BANK0               50      6       B       6       13.8%
BITSFR5              0      0       0       6        0.0%
SFR5                 0      0       0       6        0.0%
BITBANK1            50      0       0       7        0.0%
BITSFR6              0      0       0       7        0.0%
SFR6                 0      0       0       7        0.0%
BANK1               50      0       0       8        0.0%
BITSFR7              0      0       0       8        0.0%
SFR7                 0      0       0       8        0.0%
BITBANK2            50      0       0       9        0.0%
BITSFR8              0      0       0       9        0.0%
SFR8                 0      0       0       9        0.0%
BANK2               50      0       0      10        0.0%
BITSFR9              0      0       0      10        0.0%
SFR9                 0      0       0      10        0.0%
BITBANK3            50      0       0      11        0.0%
BITSFR10             0      0       0      11        0.0%
SFR10                0      0       0      11        0.0%
BANK3               50      0       0      12        0.0%
BITSFR11             0      0       0      12        0.0%
SFR11                0      0       0      12        0.0%
BITBANK4            30      0       0      13        0.0%
BITSFR12             0      0       0      13        0.0%
SFR12                0      0       0      13        0.0%
BANK4               30      0       0      14        0.0%
BITSFR13             0      0       0      14        0.0%
SFR13                0      0       0      14        0.0%
BITSFR14             0      0       0      15        0.0%
SFR14                0      0       0      15        0.0%
DATA                 0      0      19      15        0.0%
BITSFR15             0      0       0      16        0.0%
SFR15                0      0       0      16        0.0%
BITSFR16             0      0       0      17        0.0%
SFR16                0      0       0      17        0.0%
BITSFR17             0      0       0      18        0.0%
SFR17                0      0       0      18        0.0%
BITSFR18             0      0       0      19        0.0%
SFR18                0      0       0      19        0.0%
BITSFR19             0      0       0      20        0.0%
SFR19                0      0       0      20        0.0%
BITSFR20             0      0       0      21        0.0%
SFR20                0      0       0      21        0.0%
BITSFR21             0      0       0      22        0.0%
SFR21                0      0       0      22        0.0%
BITSFR22             0      0       0      23        0.0%
SFR22                0      0       0      23        0.0%
BITSFR23             0      0       0      24        0.0%
SFR23                0      0       0      24        0.0%
BITSFR24             0      0       0      25        0.0%
SFR24                0      0       0      25        0.0%
BITSFR25             0      0       0      26        0.0%
SFR25                0      0       0      26        0.0%
BITSFR26             0      0       0      27        0.0%
SFR26                0      0       0      27        0.0%
BITSFR27             0      0       0      28        0.0%
SFR27                0      0       0      28        0.0%
BITSFR28             0      0       0      29        0.0%
SFR28                0      0       0      29        0.0%
BITSFR29             0      0       0      30        0.0%
SFR29                0      0       0      30        0.0%
BITSFR30             0      0       0      31        0.0%
SFR30                0      0       0      31        0.0%
BITSFR31             0      0       0      32        0.0%
SFR31                0      0       0      32        0.0%


Microchip Technology PIC Macro Assembler V2.32 build 20210201212658 
Symbol Table                                                                                   Mon Mar 01 20:52:24 2021

                             l40 05E5                               l17 0629                               l43 05DA  
                             l37 05F6                               l72 06FD                               l73 06FD  
                             l93 060C                               l96 05FC                               l99 0600  
                            l102 05E8                              l120 0639                              l105 05EC  
                            l114 062E                              l117 0632                              l151 061A  
                            l145 064D                              l170 066A                              l148 07EB  
                            l164 068C                              l173 06C4                              l801 061B  
                            l811 0628                              l803 061E                              l813 05DF  
                            l805 0621                              l815 05E2                              l807 0624  
                            l817 05E3                              l809 0626                              l819 05D7  
                            l837 05ED                              l997 0601                              l999 0601  
                            u210 067B                              u211 067A                              u140 0608  
                            u220 066A                              u141 0607                              u205 0699  
                            u221 0669                              u150 060C                              u151 060B  
                            u160 0600                              u161 05FF                              u170 05EC  
                            u171 05EB                              u307 071B                              u180 0632  
                            u181 0631                              u317 072E                              u190 0636  
                            u191 0635                              u407 07E7                              u327 073F  
                            u417 0617                              u337 074E                              u427 064A  
                            u347 075E                              u357 077A                              u277 06EB  
                            u367 0796                              u287 06B3                              u377 07A8  
                            u297 0705                              u387 07B9                              u397 07D5  
                            wreg 0009                      command@mode 0072                  ?_lcd_set_cursor 0078  
                           l1001 0608                             l1003 05F7                             l1011 0636  
                           l1005 05FA                             l1013 063B                             l1101 0611  
                           l1021 06A8                             l1007 05E6                             l1015 0646  
                           l1103 0616                             l1031 06BF                             l1023 06AD  
                           l1111 0687                             l1009 062B                             l1041 0718  
                           l1033 0700                             l1025 06B2                             l1017 068E  
                           l1121 0661                             l1113 064E                             l1105 066D  
                           l1051 0741                             l1043 072B                             l1035 070C  
                           l1027 06B6                             l1019 06A4                             l1115 064F  
                           l1107 067B                             l1131 06D0                             l1123 06C5  
                           l1061 0761                             l1053 0745                             l1045 0732  
                           l1037 0710                             l1029 06BA                             l1117 0657  
                           l1109 067D                             l1141 06DA                             l1133 06D2  
                           l1125 06C8                             l1071 0775                             l1063 0765  
                           l1055 0749                             l1047 0736                             l1039 0714  
                           l1119 065B                             l1143 06DF                             l1135 06D3  
                           l1127 06CB                             l1081 07A1                             l1073 0779  
                           l1065 0769                             l1057 074D                             l1049 073A  
                           l1145 06E6                             l1137 06D4                             l1129 06CD  
                           l1091 07D4                             l1083 07AC                             l1075 0795  
                           l1067 076D                             l1059 075D                             l1147 06F1  
                           l1139 06D7                             l1093 07D8                             l1085 07B0  
                           l1077 0799                             l1069 0771                             l1149 06F6  
                           l1095 07DC                             l1087 07B4                             l1079 079D  
                           l1097 07E0                             l1089 07B8                             l1099 060D  
                           STR_1 0806                             STR_2 0800                             STR_3 080A  
                           _LATA 010C                             _LATB 010D                             _WPUB 020D  
                ??_lcd_backlight 0072                             _main 06C5                             fsr0h 0005  
                           fsr1h 0007                             indf0 0000                             fsr0l 0004  
                           indf1 0001                             fsr1l 0006                             btemp 007E  
                           start 0002   __size_of_OSCILLATOR_Initialize 0007    __end_of_OSCILLATOR_Initialize 05E6  
                          ?_main 0070                            _TRISA 008C                     lcd_print@cmd 007B  
                   lcd_print@str 0078                  __end_of_lcd_cmd 064E                  __end_of_command 06C5  
                 _WDT_Initialize 05D7                            status 0003                            wtemp0 007E  
                __initialization 07EC                     __end_of_main 0700                    command@lownib 0077  
               __end_of_i2c_wait 060D                 __end_of_i2c_stop 05ED                           ??_main 007C  
         __end_of_WDT_Initialize 05DB                           _ANSELA 018C                           _ANSELB 018D  
                         _BORCON 0116                           _OSCCON 0099                           _WDTCON 0097  
             __size_of_i2c_start 000A               __size_of_i2c_write 0010                 __end_of_lcd_init 07EC  
                      ??_lcd_cmd 0071                        ??_command 0073                  ?_WDT_Initialize 0070  
              _SYSTEM_Initialize 05ED          __end_of__initialization 07FD               ?_SYSTEM_Initialize 0070  
                 command@highnib 0076                   __pcstackCOMMON 0070                     __pidataBANK0 05DB  
            ??_SYSTEM_Initialize 0070                __end_of_i2c_start 0601                 ??_lcd_set_cursor 0079  
              __end_of_i2c_write 063A                   _OPTION_REGbits 0095               __size_of_lcd_print 001D  
      __end_of_SYSTEM_Initialize 05F7                       __pbssBANK0 002A                        ?_i2c_wait 0070  
                      ?_i2c_stop 0070                       __pmaintext 06C5                          _APFCON0 011D  
                        _APFCON1 011E                          _OSCTUNE 0098                          _SSP2ADD 021A  
                        _SSP2BUF 0219                        ?_lcd_init 0070                       ??_i2c_wait 0070  
                     ??_i2c_stop 0070            __end_of_lcd_backlight 061B                __end_of_lcd_print 066B  
                        __ptext1 066B                          __ptext2 064E                          __ptext3 068D  
                        __ptext4 0700                          __ptext5 060D                          __ptext6 063A  
                        __ptext7 062A                          __ptext8 05E6                          __ptext9 05F7  
                        _lcd_cmd 063A                          _command 068D            _OSCILLATOR_Initialize 05DF  
       ??_PIN_MANAGER_Initialize 0070       __size_of_SYSTEM_Initialize 000A                       ??_lcd_init 0072  
           end_of_initialization 07FD                 ??_WDT_Initialize 0070                    i2c_write@data 0070  
      lcd_set_cursor@row_offsets 0020                       lcd_cmd@cmd 0071                       command@val 0075  
         ?_OSCILLATOR_Initialize 0070              start_initialization 07EC  __size_of_PIN_MANAGER_Initialize 000F  
                      _i2c_start 05F7                        _i2c_write 062A                __size_of_i2c_wait 000C  
              __size_of_i2c_stop 0007                      __pdataBANK0 0026              lcd_set_cursor@F2502 0026  
                      ___latbits 0001                    __pcstackBANK0 0020                       ?_i2c_start 0070  
                     ?_i2c_write 0070                __size_of_lcd_init 00EC           _PIN_MANAGER_Initialize 061B  
                      _lcd_print 064E                         ?_lcd_cmd 0070                         ?_command 0072  
        __size_of_lcd_set_cursor 0022                         _SSP2CON1 021D                         _SSP2CON2 021E  
                       _SSP2STAT 021C                       ?_lcd_print 0078           __size_of_lcd_backlight 000E  
                    ??_i2c_start 0070                      ??_i2c_write 0070                         _i2c_wait 0601  
                       _i2c_stop 05E6          ??_OSCILLATOR_Initialize 0070                 __size_of_lcd_cmd 0014  
               __size_of_command 0038                         __ptext10 0601                         __ptext11 05ED  
                       __ptext12 05D7                         __ptext13 061B                         __ptext14 05DF  
                       _lcd_init 0700                     _SSP2CON1bits 021D                     _SSP2CON2bits 021E  
                  __size_of_main 003B                    _lcd_backlight 060D                     _SSP2STATbits 021C  
                    ??_lcd_print 007A          __size_of_WDT_Initialize 0004                   _lcd_set_cursor 066B  
              lcd_set_cursor@cmd 0025                lcd_set_cursor@col 0024                lcd_set_cursor@row 0078  
        ?_PIN_MANAGER_Initialize 0070                   ?_lcd_backlight 0070                    __pstringtext1 0800  
                  __pstringtext2 0806                    __pstringtext3 080A                    __pstringtext4 0000  
         __end_of_lcd_set_cursor 068D   __end_of_PIN_MANAGER_Initialize 062A                    __backlightval 002A  
